---
triple:          'arm64-apple-darwin'
binary-path:     '/Users/vroyeca/Documents/tmp/whisper.cpp/build-ios-device/framework/whisper.framework/whisper'
relocations:
  - { offset: 0x53, size: 0x8, addend: 0x0, symName: __MergedGlobals, symObjAddr: 0x51CFC8, symBinAddr: 0x190430, symSize: 0x0 }
  - { offset: 0xBE81, size: 0x8, addend: 0x0, symName: __ZNSt3__1L19piecewise_constructE, symObjAddr: 0x3A494, symBinAddr: 0xFCBC4, symSize: 0x0 }
  - { offset: 0x5092A, size: 0x8, addend: 0x0, symName: '__ZNSt3__111__introsortINS_17_ClassicAlgPolicyERZ35whisper_lang_auto_detect_with_stateE3$_0P12whisper_pairIdiELb0EEEvT1_S7_T0_NS_15iterator_traitsIS7_E15difference_typeEb', symObjAddr: 0x32CA4, symBinAddr: 0x3ACA4, symSize: 0xDA4 }
  - { offset: 0x52138, size: 0x8, addend: 0x0, symName: '__ZNSt3__127__insertion_sort_incompleteB8ne180100INS_17_ClassicAlgPolicyERZ35whisper_lang_auto_detect_with_stateE3$_0P12whisper_pairIdiEEEbT1_S7_T0_', symObjAddr: 0x33A48, symBinAddr: 0x3BA48, symSize: 0x4B4 }
  - { offset: 0x5451C, size: 0x8, addend: 0x0, symName: '__ZNSt3__111__introsortINS_17_ClassicAlgPolicyERZ23whisper_full_with_stateE3$_1PZ23whisper_full_with_stateE14beam_candidateLb0EEEvT1_S6_T0_NS_15iterator_traitsIS6_E15difference_typeEb', symObjAddr: 0x34EF4, symBinAddr: 0x3CEF4, symSize: 0x1B68 }
  - { offset: 0x5BF67, size: 0x8, addend: 0x0, symName: '__ZNSt3__127__insertion_sort_incompleteB8ne180100INS_17_ClassicAlgPolicyERZ23whisper_full_with_stateE3$_1PZ23whisper_full_with_stateE14beam_candidateEEbT1_S6_T0_', symObjAddr: 0x36CA4, symBinAddr: 0x3ECA4, symSize: 0x428 }
  - { offset: 0x650F8, size: 0x8, addend: 0x0, symName: __ZNSt3__120__throw_out_of_rangeB8ne180100EPKc, symObjAddr: 0x1A6E8, symBinAddr: 0x226E8, symSize: 0x50 }
  - { offset: 0x6545A, size: 0x8, addend: 0x0, symName: __ZNSt3__125__throw_bad_function_callB8ne180100Ev, symObjAddr: 0x1A7AC, symBinAddr: 0x227AC, symSize: 0x34 }
  - { offset: 0x65842, size: 0x8, addend: 0x0, symName: __ZNSt3__127__tree_balance_after_insertB8ne180100IPNS_16__tree_node_baseIPvEEEEvT_S5_, symObjAddr: 0x1AC70, symBinAddr: 0x22C70, symSize: 0x1B4 }
  - { offset: 0x663CB, size: 0x8, addend: 0x0, symName: __ZNSt3__113__tree_removeB8ne180100IPNS_16__tree_node_baseIPvEEEEvT_S5_, symObjAddr: 0x1D380, symBinAddr: 0x25380, symSize: 0x3C4 }
  - { offset: 0x6DC5B, size: 0x8, addend: 0x0, symName: __ZNSt3__120__throw_length_errorB8ne180100EPKc, symObjAddr: 0x19FE0, symBinAddr: 0x21FE0, symSize: 0x50 }
  - { offset: 0x6F0AE, size: 0x8, addend: 0x0, symName: __ZNSt3__114__thread_proxyB8ne180100INS_5tupleIJNS_10unique_ptrINS_15__thread_structENS_14default_deleteIS3_EEEEPFviPKfRKNS_6vectorIfNS_9allocatorIfEEEEiiiiRK15whisper_filtersR11whisper_melEiS8_NS_17reference_wrapperISD_EExiiiNSM_ISG_EENSM_ISI_EEEEEEEPvSR_, symObjAddr: 0x1C764, symBinAddr: 0x24764, symSize: 0x94 }
  - { offset: 0x6F558, size: 0x8, addend: 0x0, symName: __ZNSt3__119__throw_regex_errorB8ne180100ILNS_15regex_constants10error_typeE17EEEvv, symObjAddr: 0x1E6F0, symBinAddr: 0x266F0, symSize: 0x4C }
  - { offset: 0x70314, size: 0x8, addend: 0x0, symName: __ZNSt3__119__throw_regex_errorB8ne180100ILNS_15regex_constants10error_typeE14EEEvv, symObjAddr: 0x1EFF8, symBinAddr: 0x26FF8, symSize: 0x4C }
  - { offset: 0x706A5, size: 0x8, addend: 0x0, symName: __ZNSt3__119__throw_regex_errorB8ne180100ILNS_15regex_constants10error_typeE15EEEvv, symObjAddr: 0x26D10, symBinAddr: 0x2ED10, symSize: 0x4C }
  - { offset: 0x709B4, size: 0x8, addend: 0x0, symName: __ZNSt3__119__throw_regex_errorB8ne180100ILNS_15regex_constants10error_typeE6EEEvv, symObjAddr: 0x1FCE0, symBinAddr: 0x27CE0, symSize: 0x4C }
  - { offset: 0x70B5A, size: 0x8, addend: 0x0, symName: __ZNSt3__119__throw_regex_errorB8ne180100ILNS_15regex_constants10error_typeE11EEEvv, symObjAddr: 0x21430, symBinAddr: 0x29430, symSize: 0x4C }
  - { offset: 0x70B9E, size: 0x8, addend: 0x0, symName: __ZNSt3__119__throw_regex_errorB8ne180100ILNS_15regex_constants10error_typeE8EEEvv, symObjAddr: 0x266F4, symBinAddr: 0x2E6F4, symSize: 0x4C }
  - { offset: 0x70BC4, size: 0x8, addend: 0x0, symName: __ZNSt3__119__throw_regex_errorB8ne180100ILNS_15regex_constants10error_typeE7EEEvv, symObjAddr: 0x26740, symBinAddr: 0x2E740, symSize: 0x4C }
  - { offset: 0x70CF0, size: 0x8, addend: 0x0, symName: __ZNSt3__119__throw_regex_errorB8ne180100ILNS_15regex_constants10error_typeE12EEEvv, symObjAddr: 0x20A18, symBinAddr: 0x28A18, symSize: 0x4C }
  - { offset: 0x70D16, size: 0x8, addend: 0x0, symName: __ZNSt3__119__throw_regex_errorB8ne180100ILNS_15regex_constants10error_typeE16EEEvv, symObjAddr: 0x20A64, symBinAddr: 0x28A64, symSize: 0x4C }
  - { offset: 0x71689, size: 0x8, addend: 0x0, symName: __ZNSt3__119__throw_regex_errorB8ne180100ILNS_15regex_constants10error_typeE4EEEvv, symObjAddr: 0x21D28, symBinAddr: 0x29D28, symSize: 0x4C }
  - { offset: 0x716AF, size: 0x8, addend: 0x0, symName: __ZNSt3__119__throw_regex_errorB8ne180100ILNS_15regex_constants10error_typeE3EEEvv, symObjAddr: 0x21574, symBinAddr: 0x29574, symSize: 0x4C }
  - { offset: 0x716D5, size: 0x8, addend: 0x0, symName: __ZNSt3__119__throw_regex_errorB8ne180100ILNS_15regex_constants10error_typeE5EEEvv, symObjAddr: 0x23D08, symBinAddr: 0x2BD08, symSize: 0x4C }
  - { offset: 0x72275, size: 0x8, addend: 0x0, symName: __ZNSt3__119__throw_regex_errorB8ne180100ILNS_15regex_constants10error_typeE1EEEvv, symObjAddr: 0x25310, symBinAddr: 0x2D310, symSize: 0x4C }
  - { offset: 0x7229B, size: 0x8, addend: 0x0, symName: __ZNSt3__119__throw_regex_errorB8ne180100ILNS_15regex_constants10error_typeE2EEEvv, symObjAddr: 0x25A38, symBinAddr: 0x2DA38, symSize: 0x4C }
  - { offset: 0x722FD, size: 0x8, addend: 0x0, symName: __ZNSt3__119__throw_regex_errorB8ne180100ILNS_15regex_constants10error_typeE9EEEvv, symObjAddr: 0x26220, symBinAddr: 0x2E220, symSize: 0x4C }
  - { offset: 0x74CE0, size: 0x8, addend: 0x0, symName: __ZNSt3__135__uninitialized_allocator_copy_implB8ne180100INS_9allocatorINS_6vectorI23whisper_grammar_elementNS1_IS3_EEEEEEPS5_S7_S7_EET2_RT_T0_T1_S8_, symObjAddr: 0x30408, symBinAddr: 0x38408, symSize: 0x100 }
  - { offset: 0x752A4, size: 0x8, addend: 0x0, symName: __ZNSt3__135__uninitialized_allocator_copy_implB8ne180100INS_9allocatorINS_6vectorIPK23whisper_grammar_elementNS1_IS5_EEEEEEPS7_S9_S9_EET2_RT_T0_T1_SA_, symObjAddr: 0x30648, symBinAddr: 0x38648, symSize: 0x100 }
  - { offset: 0x77590, size: 0x8, addend: 0x0, symName: '__ZNSt3__17__sort4B8ne180100INS_17_ClassicAlgPolicyERZ35whisper_lang_auto_detect_with_stateE3$_0P12whisper_pairIdiEEEvT1_S7_S7_S7_T0_', symObjAddr: 0x33EFC, symBinAddr: 0x3BEFC, symSize: 0x1B8 }
  - { offset: 0x7873A, size: 0x8, addend: 0x0, symName: '__ZNSt3__114__thread_proxyB8ne180100INS_5tupleIJNS_10unique_ptrINS_15__thread_structENS_14default_deleteIS3_EEEEZ23whisper_full_with_stateE3$_0EEEEEPvS9_', symObjAddr: 0x34E34, symBinAddr: 0x3CE34, symSize: 0x78 }
  - { offset: 0x792CF, size: 0x8, addend: 0x0, symName: '__ZNSt3__17__sort3B8ne180100INS_17_ClassicAlgPolicyERZ23whisper_full_with_stateE3$_1PZ23whisper_full_with_stateE14beam_candidateEEjT1_S6_S6_T0_', symObjAddr: 0x36B8C, symBinAddr: 0x3EB8C, symSize: 0x118 }
  - { offset: 0x7944F, size: 0x8, addend: 0x0, symName: __ZNSt3__19iter_swapB8ne180100IPZ23whisper_full_with_stateE14beam_candidateS2_EEvT_T0_, symObjAddr: 0x370CC, symBinAddr: 0x3F0CC, symSize: 0x208 }
  - { offset: 0x79ED9, size: 0x8, addend: 0x0, symName: '__ZNSt3__17__sort4B8ne180100INS_17_ClassicAlgPolicyERZ23whisper_full_with_stateE3$_1PZ23whisper_full_with_stateE14beam_candidateEEvT1_S6_S6_S6_T0_', symObjAddr: 0x372D4, symBinAddr: 0x3F2D4, symSize: 0xE8 }
  - { offset: 0x7A047, size: 0x8, addend: 0x0, symName: '__ZNSt3__124__sort5_maybe_branchlessB8ne180100INS_17_ClassicAlgPolicyERZ23whisper_full_with_stateE3$_1PZ23whisper_full_with_stateE14beam_candidateLi0EEEvT1_S6_S6_S6_S6_T0_', symObjAddr: 0x36A5C, symBinAddr: 0x3EA5C, symSize: 0x130 }
  - { offset: 0x7A383, size: 0x8, addend: 0x0, symName: '__ZNSt3__114__thread_proxyB8ne180100INS_5tupleIJNS_10unique_ptrINS_15__thread_structENS_14default_deleteIS3_EEEEZ23whisper_full_with_stateE3$_2EEEEEPvS9_', symObjAddr: 0x373BC, symBinAddr: 0x3F3BC, symSize: 0x140 }
  - { offset: 0x7AD86, size: 0x8, addend: 0x0, symName: __ZNSt3__114__thread_proxyB8ne180100INS_5tupleIJNS_10unique_ptrINS_15__thread_structENS_14default_deleteIS3_EEEEPFiP15whisper_contextP13whisper_state19whisper_full_paramsPKfiES8_SA_SB_SD_iEEEEEPvSH_, symObjAddr: 0x37680, symBinAddr: 0x3F680, symSize: 0xB0 }
  - { offset: 0x7B221, size: 0x8, addend: 0x0, symName: '__ZNSt3__114__thread_proxyB8ne180100INS_5tupleIJNS_10unique_ptrINS_15__thread_structENS_14default_deleteIS3_EEEEZ24whisper_bench_memcpy_strE3$_0iEEEEEPvS9_', symObjAddr: 0x37778, symBinAddr: 0x3F778, symSize: 0x120 }
  - { offset: 0x7E45B, size: 0x8, addend: 0x0, symName: __ZSt28__throw_bad_array_new_lengthB8ne180100v, symObjAddr: 0x1A054, symBinAddr: 0x22054, symSize: 0x28 }
  - { offset: 0x7EBAE, size: 0x8, addend: 0x0, symName: __MergedGlobals, symObjAddr: 0x51CFC8, symBinAddr: 0x190430, symSize: 0x0 }
  - { offset: 0x7EFF8, size: 0x8, addend: 0x0, symName: __MergedGlobals, symObjAddr: 0x51CFC8, symBinAddr: 0x190430, symSize: 0x0 }
  - { offset: 0x7F4F3, size: 0x8, addend: 0x0, symName: __ZN12_GLOBAL__N_112global_cacheE, symObjAddr: 0x51BD08, symBinAddr: 0x18F170, symSize: 0x0 }
  - { offset: 0x7F59B, size: 0x8, addend: 0x0, symName: _whisper_print_system_info, symObjAddr: 0xB644, symBinAddr: 0x13644, symSize: 0x3D0 }
  - { offset: 0x7F5C3, size: 0x8, addend: 0x0, symName: __MergedGlobals, symObjAddr: 0x51CFC8, symBinAddr: 0x190430, symSize: 0x0 }
  - { offset: 0x80414, size: 0x8, addend: 0x0, symName: __MergedGlobals, symObjAddr: 0x51CFC8, symBinAddr: 0x190430, symSize: 0x0 }
  - { offset: 0x80604, size: 0x8, addend: 0x0, symName: _whisper_bench_memcpy_str, symObjAddr: 0x18844, symBinAddr: 0x20844, symSize: 0x97C }
  - { offset: 0x8062C, size: 0x8, addend: 0x0, symName: __MergedGlobals, symObjAddr: 0x51CFC8, symBinAddr: 0x190430, symSize: 0x0 }
  - { offset: 0x8175A, size: 0x8, addend: 0x0, symName: _whisper_bench_ggml_mul_mat_str, symObjAddr: 0x191E8, symBinAddr: 0x211E8, symSize: 0x658 }
  - { offset: 0x81782, size: 0x8, addend: 0x0, symName: __MergedGlobals, symObjAddr: 0x51CFC8, symBinAddr: 0x190430, symSize: 0x0 }
  - { offset: 0x82B0F, size: 0x8, addend: 0x0, symName: __ZL16g_aheads_tiny_en, symObjAddr: 0x3A03C, symBinAddr: 0xFC76C, symSize: 0x0 }
  - { offset: 0x82B37, size: 0x8, addend: 0x0, symName: __ZL13g_aheads_tiny, symObjAddr: 0x3A07C, symBinAddr: 0xFC7AC, symSize: 0x0 }
  - { offset: 0x82B5F, size: 0x8, addend: 0x0, symName: __ZL16g_aheads_base_en, symObjAddr: 0x3A0AC, symBinAddr: 0xFC7DC, symSize: 0x0 }
  - { offset: 0x82B87, size: 0x8, addend: 0x0, symName: __ZL13g_aheads_base, symObjAddr: 0x3A0D4, symBinAddr: 0xFC804, symSize: 0x0 }
  - { offset: 0x82BA1, size: 0x8, addend: 0x0, symName: __ZL17g_aheads_small_en, symObjAddr: 0x3A114, symBinAddr: 0xFC844, symSize: 0x0 }
  - { offset: 0x82BC9, size: 0x8, addend: 0x0, symName: __ZL14g_aheads_small, symObjAddr: 0x3A1AC, symBinAddr: 0xFC8DC, symSize: 0x0 }
  - { offset: 0x82BF1, size: 0x8, addend: 0x0, symName: __ZL18g_aheads_medium_en, symObjAddr: 0x3A1FC, symBinAddr: 0xFC92C, symSize: 0x0 }
  - { offset: 0x82C19, size: 0x8, addend: 0x0, symName: __ZL15g_aheads_medium, symObjAddr: 0x3A28C, symBinAddr: 0xFC9BC, symSize: 0x0 }
  - { offset: 0x82C33, size: 0x8, addend: 0x0, symName: __ZL17g_aheads_large_v1, symObjAddr: 0x3A2BC, symBinAddr: 0xFC9EC, symSize: 0x0 }
  - { offset: 0x82C5B, size: 0x8, addend: 0x0, symName: __ZL17g_aheads_large_v2, symObjAddr: 0x3A304, symBinAddr: 0xFCA34, symSize: 0x0 }
  - { offset: 0x82C83, size: 0x8, addend: 0x0, symName: __ZL17g_aheads_large_v3, symObjAddr: 0x3A3BC, symBinAddr: 0xFCAEC, symSize: 0x0 }
  - { offset: 0x82C9D, size: 0x8, addend: 0x0, symName: __ZL23g_aheads_large_v3_turbo, symObjAddr: 0x3A40C, symBinAddr: 0xFCB3C, symSize: 0x0 }
  - { offset: 0x82CB6, size: 0x8, addend: 0x0, symName: __ZL27whisper_build_graph_encoderR15whisper_contextR13whisper_state, symObjAddr: 0x1CAD0, symBinAddr: 0x24AD0, symSize: 0x5D0 }
  - { offset: 0x83688, size: 0x8, addend: 0x0, symName: __ZL25whisper_build_graph_crossR15whisper_contextR13whisper_state, symObjAddr: 0x1D0A0, symBinAddr: 0x250A0, symSize: 0x2E0 }
  - { offset: 0x83693, size: 0x8, addend: 0x0, symName: __ZL11decode_utf8PKc20whisper_partial_utf8, symObjAddr: 0x2E4E4, symBinAddr: 0x364E4, symSize: 0x534 }
  - { offset: 0x836BF, size: 0x8, addend: 0x0, symName: __ZZL11decode_utf8PKc20whisper_partial_utf8E6lookup, symObjAddr: 0x3A8EC, symBinAddr: 0xFD01C, symSize: 0x0 }
  - { offset: 0x84AB9, size: 0x8, addend: 0x0, symName: __ZL7g_state.0, symObjAddr: 0x3F6A0, symBinAddr: 0x12C7E8, symSize: 0x0 }
  - { offset: 0x84AC4, size: 0x8, addend: 0x0, symName: __MergedGlobals, symObjAddr: 0x51CFC8, symBinAddr: 0x190430, symSize: 0x0 }
  - { offset: 0x87248, size: 0x8, addend: 0x0, symName: _whisper_init_from_buffer_with_params_no_state, symObjAddr: 0x2F20, symBinAddr: 0xAF20, symSize: 0x88 }
  - { offset: 0x8A772, size: 0x8, addend: 0x0, symName: _whisper_full_with_state, symObjAddr: 0xBDA4, symBinAddr: 0x13DA4, symSize: 0x7D84 }
  - { offset: 0xA6B17, size: 0x8, addend: 0x0, symName: _whisper_init_state, symObjAddr: 0x128, symBinAddr: 0x8128, symSize: 0x1F38 }
  - { offset: 0xAF970, size: 0x8, addend: 0x0, symName: __ZNSt3__13mapI7e_modelNS_12basic_stringIcNS_11char_traitsIcEENS_9allocatorIcEEEENS_4lessIS1_EENS5_INS_4pairIKS1_S7_EEEEED1B8ne180100Ev, symObjAddr: 0x0, symBinAddr: 0x8000, symSize: 0x28 }
  - { offset: 0xAFA2E, size: 0x8, addend: 0x0, symName: __ZNSt3__16__treeINS_12__value_typeI7e_modelNS_12basic_stringIcNS_11char_traitsIcEENS_9allocatorIcEEEEEENS_19__map_value_compareIS2_S9_NS_4lessIS2_EELb1EEENS6_IS9_EEE7destroyEPNS_11__tree_nodeIS9_PvEE, symObjAddr: 0x31C3C, symBinAddr: 0x39C3C, symSize: 0x60 }
  - { offset: 0xAFF02, size: 0x8, addend: 0x0, symName: __ZNSt3__112basic_stringIcNS_11char_traitsIcEENS_9allocatorIcEEEC1B8ne180100ILi0EEEPKc, symObjAddr: 0x28, symBinAddr: 0x8028, symSize: 0xB0 }
  - { offset: 0xB02F9, size: 0x8, addend: 0x0, symName: __ZNSt3__13mapINS_12basic_stringIcNS_11char_traitsIcEENS_9allocatorIcEEEENS_4pairIiS6_EENS_4lessIS6_EENS4_INS7_IKS6_S8_EEEEED1B8ne180100Ev, symObjAddr: 0xD8, symBinAddr: 0x80D8, symSize: 0x28 }
  - { offset: 0xB031E, size: 0x8, addend: 0x0, symName: __ZNKSt3__112basic_stringIcNS_11char_traitsIcEENS_9allocatorIcEEE20__throw_length_errorB8ne180100Ev, symObjAddr: 0x1A798, symBinAddr: 0x22798, symSize: 0x14 }
  - { offset: 0xB0348, size: 0x8, addend: 0x0, symName: __ZNSt3__125__throw_bad_function_callB8ne180100Ev, symObjAddr: 0x1A7AC, symBinAddr: 0x227AC, symSize: 0x34 }
  - { offset: 0xB03C7, size: 0x8, addend: 0x0, symName: __ZNSt3__13mapINS_12basic_stringIcNS_11char_traitsIcEENS_9allocatorIcEEEENS_4pairIiS6_EENS_4lessIS6_EENS4_INS7_IKS6_S8_EEEEED1B8ne180100Ev, symObjAddr: 0xD8, symBinAddr: 0x80D8, symSize: 0x28 }
  - { offset: 0xB0485, size: 0x8, addend: 0x0, symName: __ZNSt3__16__treeINS_12__value_typeINS_12basic_stringIcNS_11char_traitsIcEENS_9allocatorIcEEEENS_4pairIiS7_EEEENS_19__map_value_compareIS7_SA_NS_4lessIS7_EELb1EEENS5_ISA_EEE7destroyEPNS_11__tree_nodeISA_PvEE, symObjAddr: 0x32370, symBinAddr: 0x3A370, symSize: 0x78 }
  - { offset: 0xB0903, size: 0x8, addend: 0x0, symName: __ZNSt3__13mapI30whisper_alignment_heads_preset14whisper_aheadsNS_4lessIS1_EENS_9allocatorINS_4pairIKS1_S2_EEEEED1B8ne180100Ev, symObjAddr: 0x100, symBinAddr: 0x8100, symSize: 0x28 }
  - { offset: 0xB09C1, size: 0x8, addend: 0x0, symName: __ZNSt3__16__treeINS_12__value_typeI30whisper_alignment_heads_preset14whisper_aheadsEENS_19__map_value_compareIS2_S4_NS_4lessIS2_EELb1EEENS_9allocatorIS4_EEE7destroyEPNS_11__tree_nodeIS4_PvEE, symObjAddr: 0x32694, symBinAddr: 0x3A694, symSize: 0x40 }
  - { offset: 0xB35EC, size: 0x8, addend: 0x0, symName: __ZN13whisper_stateC2Ev, symObjAddr: 0x199FC, symBinAddr: 0x219FC, symSize: 0x470 }
  - { offset: 0xB3B41, size: 0x8, addend: 0x0, symName: __ZL20whisper_log_internal14ggml_log_levelPKcz, symObjAddr: 0x2060, symBinAddr: 0xA060, symSize: 0xF4 }
  - { offset: 0xB3C7F, size: 0x8, addend: 0x0, symName: __ZL21whisper_kv_cache_initR16whisper_kv_cacheP12ggml_backend9ggml_typexxi, symObjAddr: 0x2268, symBinAddr: 0xA268, symSize: 0x33C }
  - { offset: 0xB46A6, size: 0x8, addend: 0x0, symName: __ZL19aheads_masks_nbytesR20whisper_aheads_masks, symObjAddr: 0x25A4, symBinAddr: 0xA5A4, symSize: 0x6C }
  - { offset: 0xB46CF, size: 0x8, addend: 0x0, symName: _whisper_free_state, symObjAddr: 0x2154, symBinAddr: 0xA154, symSize: 0x114 }
  - { offset: 0xB4991, size: 0x8, addend: 0x0, symName: __ZL28get_alignment_heads_by_layerRK22whisper_context_paramsiii, symObjAddr: 0x1A278, symBinAddr: 0x22278, symSize: 0x470 }
  - { offset: 0xB54FD, size: 0x8, addend: 0x0, symName: __ZNSt3__16vectorIfNS_9allocatorIfEEE8__appendEm, symObjAddr: 0x326D4, symBinAddr: 0x3A6D4, symSize: 0x19C }
  - { offset: 0xB59A1, size: 0x8, addend: 0x0, symName: __ZNKSt3__16vectorINS_6threadENS_9allocatorIS1_EEE20__throw_length_errorB8ne180100Ev, symObjAddr: 0x32870, symBinAddr: 0x3A870, symSize: 0x14 }
  - { offset: 0xB59C8, size: 0x8, addend: 0x0, symName: __ZL19aheads_masks_nbytesR20whisper_aheads_masks, symObjAddr: 0x25A4, symBinAddr: 0xA5A4, symSize: 0x6C }
  - { offset: 0xB5A51, size: 0x8, addend: 0x0, symName: __ZNSt3__112basic_stringIcNS_11char_traitsIcEENS_9allocatorIcEEE25__init_copy_ctor_externalEPKcm, symObjAddr: 0x31C9C, symBinAddr: 0x39C9C, symSize: 0x8C }
  - { offset: 0xB5DF8, size: 0x8, addend: 0x0, symName: __ZNSt3__13mapINS_12basic_stringIcNS_11char_traitsIcEENS_9allocatorIcEEEENS_4pairIiS6_EENS_4lessIS6_EENS4_INS7_IKS6_S8_EEEEEC2B8ne180100ESt16initializer_listISC_ERKSA_, symObjAddr: 0x31D28, symBinAddr: 0x39D28, symSize: 0xF4 }
  - { offset: 0xB5E2F, size: 0x8, addend: 0x0, symName: __ZL24whisper_sched_graph_initR13whisper_schedNSt3__16vectorIP12ggml_backendNS1_9allocatorIS4_EEEEONS1_8functionIFP11ggml_cgraphvEEE, symObjAddr: 0x2610, symBinAddr: 0xA610, symSize: 0x258 }
  - { offset: 0xB6483, size: 0x8, addend: 0x0, symName: __ZNSt3__16vectorIP12ggml_backendNS_9allocatorIS2_EEEC1ERKS5_, symObjAddr: 0x2868, symBinAddr: 0xA868, symSize: 0x90 }
  - { offset: 0xB64D1, size: 0x8, addend: 0x0, symName: __ZNSt3__16vectorIP12ggml_backendNS_9allocatorIS2_EEEC1ERKS5_, symObjAddr: 0x2868, symBinAddr: 0xA868, symSize: 0x90 }
  - { offset: 0xB695D, size: 0x8, addend: 0x0, symName: __ZL18whisper_sched_sizeR13whisper_sched, symObjAddr: 0x28F8, symBinAddr: 0xA8F8, symSize: 0x74 }
  - { offset: 0xB6A09, size: 0x8, addend: 0x0, symName: __ZNKSt3__16vectorIP12ggml_backendNS_9allocatorIS2_EEE20__throw_length_errorB8ne180100Ev, symObjAddr: 0x19FCC, symBinAddr: 0x21FCC, symSize: 0x14 }
  - { offset: 0xB6A33, size: 0x8, addend: 0x0, symName: __ZNSt3__120__throw_length_errorB8ne180100EPKc, symObjAddr: 0x19FE0, symBinAddr: 0x21FE0, symSize: 0x50 }
  - { offset: 0xB6A3E, size: 0x8, addend: 0x0, symName: __ZNKSt3__16vectorIP11ggml_tensorNS_9allocatorIS2_EEE20__throw_length_errorB8ne180100Ev, symObjAddr: 0x1A770, symBinAddr: 0x22770, symSize: 0x14 }
  - { offset: 0xB6A68, size: 0x8, addend: 0x0, symName: __ZNKSt3__112basic_stringIcNS_11char_traitsIcEENS_9allocatorIcEEE20__throw_out_of_rangeB8ne180100Ev, symObjAddr: 0x1A784, symBinAddr: 0x22784, symSize: 0x14 }
  - { offset: 0xB6A73, size: 0x8, addend: 0x0, symName: __ZNKSt3__112basic_stringIcNS_11char_traitsIcEENS_9allocatorIcEEE20__throw_out_of_rangeB8ne180100Ev, symObjAddr: 0x1A784, symBinAddr: 0x22784, symSize: 0x14 }
  - { offset: 0xB6A9D, size: 0x8, addend: 0x0, symName: __ZNKSt3__112basic_stringIcNS_11char_traitsIcEENS_9allocatorIcEEE20__throw_length_errorB8ne180100Ev, symObjAddr: 0x1A798, symBinAddr: 0x22798, symSize: 0x14 }
  - { offset: 0xB6AA8, size: 0x8, addend: 0x0, symName: __ZNKSt3__16vectorI18whisper_token_dataNS_9allocatorIS1_EEE20__throw_length_errorB8ne180100Ev, symObjAddr: 0x2FA54, symBinAddr: 0x37A54, symSize: 0x14 }
  - { offset: 0xB6AD2, size: 0x8, addend: 0x0, symName: __ZNSt3__121discrete_distributionIiE10param_typeC2B8ne180100INS_11__wrap_iterIPKfEEEET_S8_, symObjAddr: 0x2FA68, symBinAddr: 0x37A68, symSize: 0x12C }
  - { offset: 0xB6ADD, size: 0x8, addend: 0x0, symName: __ZNKSt3__16vectorIfNS_9allocatorIfEEE20__throw_length_errorB8ne180100Ev, symObjAddr: 0x31978, symBinAddr: 0x39978, symSize: 0x14 }
  - { offset: 0xB6B07, size: 0x8, addend: 0x0, symName: __ZNSt3__16__treeINS_12__value_typeI7e_modelNS_12basic_stringIcNS_11char_traitsIcEENS_9allocatorIcEEEEEENS_19__map_value_compareIS2_S9_NS_4lessIS2_EELb1EEENS6_IS9_EEE30__emplace_hint_unique_key_argsIS2_JRKNS_4pairIKS2_S8_EEEEENSH_INS_15__tree_iteratorIS9_PNS_11__tree_nodeIS9_PvEElEEbEENS_21__tree_const_iteratorIS9_SQ_lEERKT_DpOT0_, symObjAddr: 0x3198C, symBinAddr: 0x3998C, symSize: 0x100 }
  - { offset: 0xB6B12, size: 0x8, addend: 0x0, symName: __ZNKSt3__16vectorI12whisper_pairIdiENS_9allocatorIS2_EEE20__throw_length_errorB8ne180100Ev, symObjAddr: 0x30234, symBinAddr: 0x38234, symSize: 0x14 }
  - { offset: 0xB6B3C, size: 0x8, addend: 0x0, symName: __ZNKSt3__16vectorIZ23whisper_full_with_stateE14beam_candidateNS_9allocatorIS1_EEE20__throw_length_errorB8ne180100Ev, symObjAddr: 0x30248, symBinAddr: 0x38248, symSize: 0x14 }
  - { offset: 0xB6C8D, size: 0x8, addend: 0x0, symName: __ZN13whisper_stateD2Ev, symObjAddr: 0x1B470, symBinAddr: 0x23470, symSize: 0x2BC }
  - { offset: 0xB9773, size: 0x8, addend: 0x0, symName: __ZNSt3__16__treeIiNS_4lessIiEENS_9allocatorIiEEE7destroyEPNS_11__tree_nodeIiPvEE, symObjAddr: 0x19F8C, symBinAddr: 0x21F8C, symSize: 0x40 }
  - { offset: 0xB98BC, size: 0x8, addend: 0x0, symName: __ZNSt3__16vectorI15whisper_kv_cellNS_9allocatorIS1_EEE8__appendEm, symObjAddr: 0x1A090, symBinAddr: 0x22090, symSize: 0x1D4 }
  - { offset: 0xBA198, size: 0x8, addend: 0x0, symName: __ZNKSt3__16vectorI15whisper_kv_cellNS_9allocatorIS1_EEE20__throw_length_errorB8ne180100Ev, symObjAddr: 0x1A264, symBinAddr: 0x22264, symSize: 0x14 }
  - { offset: 0xBA1D2, size: 0x8, addend: 0x0, symName: __ZNKSt3__16vectorIhNS_9allocatorIhEEE20__throw_length_errorB8ne180100Ev, symObjAddr: 0x1A07C, symBinAddr: 0x2207C, symSize: 0x14 }
  - { offset: 0xBA1FC, size: 0x8, addend: 0x0, symName: __ZNSt3__16vectorI15whisper_kv_cellNS_9allocatorIS1_EEE8__appendEm, symObjAddr: 0x1A090, symBinAddr: 0x22090, symSize: 0x1D4 }
  - { offset: 0xBA34F, size: 0x8, addend: 0x0, symName: _whisper_ctx_init_openvino_encoder_with_state, symObjAddr: 0x296C, symBinAddr: 0xA96C, symSize: 0x8 }
  - { offset: 0xBA3B8, size: 0x8, addend: 0x0, symName: _whisper_ctx_init_openvino_encoder, symObjAddr: 0x2974, symBinAddr: 0xA974, symSize: 0x8 }
  - { offset: 0xBA412, size: 0x8, addend: 0x0, symName: _whisper_context_default_params, symObjAddr: 0x297C, symBinAddr: 0xA97C, symSize: 0x24 }
  - { offset: 0xBA4A2, size: 0x8, addend: 0x0, symName: _whisper_init_from_file_with_params_no_state, symObjAddr: 0x29A0, symBinAddr: 0xA9A0, symSize: 0x18C }
  - { offset: 0xBA6C0, size: 0x8, addend: 0x0, symName: __ZNSt3__114basic_ifstreamIcNS_11char_traitsIcEEEC1EPKcj, symObjAddr: 0x2B2C, symBinAddr: 0xAB2C, symSize: 0x118 }
  - { offset: 0xBA7B2, size: 0x8, addend: 0x0, symName: _whisper_init_with_params_no_state, symObjAddr: 0x2C44, symBinAddr: 0xAC44, symSize: 0x284 }
  - { offset: 0xBB4DA, size: 0x8, addend: 0x0, symName: __ZNSt3__114basic_ifstreamIcNS_11char_traitsIcEEED1Ev, symObjAddr: 0x2EC8, symBinAddr: 0xAEC8, symSize: 0x58 }
  - { offset: 0xBC035, size: 0x8, addend: 0x0, symName: __ZL18whisper_model_loadP20whisper_model_loaderR15whisper_context, symObjAddr: 0x2FA8, symBinAddr: 0xAFA8, symSize: 0x4804 }
  - { offset: 0xCFA5E, size: 0x8, addend: 0x0, symName: __ZNSt3__16__treeINS_12__value_typeIiNS_12basic_stringIcNS_11char_traitsIcEENS_9allocatorIcEEEEEENS_19__map_value_compareIiS8_NS_4lessIiEELb1EEENS5_IS8_EEE7destroyEPNS_11__tree_nodeIS8_PvEE, symObjAddr: 0x1B350, symBinAddr: 0x23350, symSize: 0x60 }
  - { offset: 0xCFD10, size: 0x8, addend: 0x0, symName: __ZNSt3__16__treeINS_12__value_typeINS_12basic_stringIcNS_11char_traitsIcEENS_9allocatorIcEEEEiEENS_19__map_value_compareIS7_S8_NS_4lessIS7_EELb1EEENS5_IS8_EEE7destroyEPNS_11__tree_nodeIS8_PvEE, symObjAddr: 0x1B3B0, symBinAddr: 0x233B0, symSize: 0x60 }
  - { offset: 0xCFFBA, size: 0x8, addend: 0x0, symName: __ZNSt3__16__treeINS_12__value_typeINS_12basic_stringIcNS_11char_traitsIcEENS_9allocatorIcEEEEP11ggml_tensorEENS_19__map_value_compareIS7_SA_NS_4lessIS7_EELb1EEENS5_ISA_EEE7destroyEPNS_11__tree_nodeISA_PvEE, symObjAddr: 0x1B410, symBinAddr: 0x23410, symSize: 0x60 }
  - { offset: 0xD1368, size: 0x8, addend: 0x0, symName: __ZNSt3__16__treeINS_12__value_typeINS_12basic_stringIcNS_11char_traitsIcEENS_9allocatorIcEEEEiEENS_19__map_value_compareIS7_S8_NS_4lessIS7_EELb1EEENS5_IS8_EEE25__emplace_unique_key_argsIS7_JRKNS_21piecewise_construct_tENS_5tupleIJRKS7_EEENSJ_IJEEEEEENS_4pairINS_15__tree_iteratorIS8_PNS_11__tree_nodeIS8_PvEElEEbEERKT_DpOT0_, symObjAddr: 0x1AAD4, symBinAddr: 0x22AD4, symSize: 0x19C }
  - { offset: 0xD1AC7, size: 0x8, addend: 0x0, symName: _whisper_lang_str, symObjAddr: 0xAAB0, symBinAddr: 0x12AB0, symSize: 0xBC }
  - { offset: 0xD1C99, size: 0x8, addend: 0x0, symName: __ZNSt3__16vectorI21whisper_layer_encoderNS_9allocatorIS1_EEE8__appendEm, symObjAddr: 0x1AE24, symBinAddr: 0x22E24, symSize: 0x1D0 }
  - { offset: 0xD21BA, size: 0x8, addend: 0x0, symName: __ZNKSt3__16vectorI21whisper_layer_encoderNS_9allocatorIS1_EEE20__throw_length_errorB8ne180100Ev, symObjAddr: 0x1AFF4, symBinAddr: 0x22FF4, symSize: 0x14 }
  - { offset: 0xD21C5, size: 0x8, addend: 0x0, symName: __ZNSt3__16vectorI21whisper_layer_decoderNS_9allocatorIS1_EEE8__appendEm, symObjAddr: 0x1B008, symBinAddr: 0x23008, symSize: 0x1BC }
  - { offset: 0xD26E6, size: 0x8, addend: 0x0, symName: __ZNKSt3__16vectorI21whisper_layer_decoderNS_9allocatorIS1_EEE20__throw_length_errorB8ne180100Ev, symObjAddr: 0x1B1C4, symBinAddr: 0x231C4, symSize: 0x14 }
  - { offset: 0xD2718, size: 0x8, addend: 0x0, symName: __ZNSt3__16__treeINS_12__value_typeINS_12basic_stringIcNS_11char_traitsIcEENS_9allocatorIcEEEEP11ggml_tensorEENS_19__map_value_compareIS7_SA_NS_4lessIS7_EELb1EEENS5_ISA_EEE25__emplace_unique_key_argsIS7_JRKNS_21piecewise_construct_tENS_5tupleIJOS7_EEENSL_IJEEEEEENS_4pairINS_15__tree_iteratorISA_PNS_11__tree_nodeISA_PvEElEEbEERKT_DpOT0_, symObjAddr: 0x1B1D8, symBinAddr: 0x231D8, symSize: 0x178 }
  - { offset: 0xD2DCB, size: 0x8, addend: 0x0, symName: __ZNSt3__16vectorIcNS_9allocatorIcEEE6resizeEm, symObjAddr: 0x1A8E8, symBinAddr: 0x228E8, symSize: 0x1D8 }
  - { offset: 0xD3348, size: 0x8, addend: 0x0, symName: __ZNKSt3__16vectorIcNS_9allocatorIcEEE20__throw_length_errorB8ne180100Ev, symObjAddr: 0x1AAC0, symBinAddr: 0x22AC0, symSize: 0x14 }
  - { offset: 0xD336D, size: 0x8, addend: 0x0, symName: __ZNKSt3__16vectorIcNS_9allocatorIcEEE20__throw_length_errorB8ne180100Ev, symObjAddr: 0x1AAC0, symBinAddr: 0x22AC0, symSize: 0x14 }
  - { offset: 0xD3397, size: 0x8, addend: 0x0, symName: __ZNSt3__16__treeINS_12__value_typeINS_12basic_stringIcNS_11char_traitsIcEENS_9allocatorIcEEEEiEENS_19__map_value_compareIS7_S8_NS_4lessIS7_EELb1EEENS5_IS8_EEE25__emplace_unique_key_argsIS7_JRKNS_21piecewise_construct_tENS_5tupleIJRKS7_EEENSJ_IJEEEEEENS_4pairINS_15__tree_iteratorIS8_PNS_11__tree_nodeIS8_PvEElEEbEERKT_DpOT0_, symObjAddr: 0x1AAD4, symBinAddr: 0x22AD4, symSize: 0x19C }
  - { offset: 0xD33A2, size: 0x8, addend: 0x0, symName: _whisper_init_from_file_with_params, symObjAddr: 0x77AC, symBinAddr: 0xF7AC, symSize: 0x74 }
  - { offset: 0xD341F, size: 0x8, addend: 0x0, symName: _whisper_free, symObjAddr: 0x7820, symBinAddr: 0xF820, symSize: 0xA4 }
  - { offset: 0xD3D7A, size: 0x8, addend: 0x0, symName: _whisper_init_from_buffer_with_params, symObjAddr: 0x78C4, symBinAddr: 0xF8C4, symSize: 0xC0 }
  - { offset: 0xD3E54, size: 0x8, addend: 0x0, symName: _whisper_init_with_params, symObjAddr: 0x7984, symBinAddr: 0xF984, symSize: 0x74 }
  - { offset: 0xD3F21, size: 0x8, addend: 0x0, symName: _whisper_init_from_file, symObjAddr: 0x79F8, symBinAddr: 0xF9F8, symSize: 0x90 }
  - { offset: 0xD401C, size: 0x8, addend: 0x0, symName: _whisper_init_from_buffer, symObjAddr: 0x7A88, symBinAddr: 0xFA88, symSize: 0xDC }
  - { offset: 0xD417D, size: 0x8, addend: 0x0, symName: _whisper_init, symObjAddr: 0x7B64, symBinAddr: 0xFB64, symSize: 0x90 }
  - { offset: 0xD4238, size: 0x8, addend: 0x0, symName: _whisper_init_from_file_no_state, symObjAddr: 0x7BF4, symBinAddr: 0xFBF4, symSize: 0x40 }
  - { offset: 0xD42A3, size: 0x8, addend: 0x0, symName: _whisper_init_from_buffer_no_state, symObjAddr: 0x7C34, symBinAddr: 0xFC34, symSize: 0x98 }
  - { offset: 0xD4371, size: 0x8, addend: 0x0, symName: _whisper_init_no_state, symObjAddr: 0x7CCC, symBinAddr: 0xFCCC, symSize: 0x40 }
  - { offset: 0xD43DC, size: 0x8, addend: 0x0, symName: _whisper_free_context_params, symObjAddr: 0x7D0C, symBinAddr: 0xFD0C, symSize: 0xC }
  - { offset: 0xD4403, size: 0x8, addend: 0x0, symName: _whisper_free_params, symObjAddr: 0x7D18, symBinAddr: 0xFD18, symSize: 0xC }
  - { offset: 0xD4B17, size: 0x8, addend: 0x0, symName: _whisper_pcm_to_mel_with_state, symObjAddr: 0x7D24, symBinAddr: 0xFD24, symSize: 0x7BC }
  - { offset: 0xD5ADA, size: 0x8, addend: 0x0, symName: __ZNSt3__16threadC2IRFviPKfRKNS_6vectorIfNS_9allocatorIfEEEEiiiiRK15whisper_filtersR11whisper_melEJiRS3_NS_17reference_wrapperIS8_EExRKiSL_SL_NSI_ISB_EENSI_ISD_EEEvEEOT_DpOT0_, symObjAddr: 0x1C628, symBinAddr: 0x24628, symSize: 0x13C }
  - { offset: 0xD6190, size: 0x8, addend: 0x0, symName: __ZL33log_mel_spectrogram_worker_threadiPKfRKNSt3__16vectorIfNS1_9allocatorIfEEEEiiiiRK15whisper_filtersR11whisper_mel, symObjAddr: 0x1B72C, symBinAddr: 0x2372C, symSize: 0x7E4 }
  - { offset: 0xD6AED, size: 0x8, addend: 0x0, symName: __ZNKSt3__16vectorINS_6threadENS_9allocatorIS1_EEE20__throw_length_errorB8ne180100Ev, symObjAddr: 0x32870, symBinAddr: 0x3A870, symSize: 0x14 }
  - { offset: 0xD6B17, size: 0x8, addend: 0x0, symName: __ZNKSt3__16vectorIiNS_9allocatorIiEEE20__throw_length_errorB8ne180100Ev, symObjAddr: 0x32884, symBinAddr: 0x3A884, symSize: 0x14 }
  - { offset: 0xD6B22, size: 0x8, addend: 0x0, symName: _whisper_pcm_to_mel, symObjAddr: 0x84E0, symBinAddr: 0x104E0, symSize: 0x28 }
  - { offset: 0xD6BB1, size: 0x8, addend: 0x0, symName: _whisper_set_mel_with_state, symObjAddr: 0x8508, symBinAddr: 0x10508, symSize: 0xCC }
  - { offset: 0xD6D05, size: 0x8, addend: 0x0, symName: _whisper_set_mel, symObjAddr: 0x85D4, symBinAddr: 0x105D4, symSize: 0xCC }
  - { offset: 0xD6E68, size: 0x8, addend: 0x0, symName: _whisper_encode_with_state, symObjAddr: 0x86A0, symBinAddr: 0x106A0, symSize: 0x58 }
  - { offset: 0xD6EF5, size: 0x8, addend: 0x0, symName: __ZL23whisper_encode_internalR15whisper_contextR13whisper_stateiiPFbPvES3_, symObjAddr: 0x86F8, symBinAddr: 0x106F8, symSize: 0x424 }
  - { offset: 0xD73E6, size: 0x8, addend: 0x0, symName: __ZL24whisper_build_graph_convR15whisper_contextR13whisper_state, symObjAddr: 0x1C874, symBinAddr: 0x24874, symSize: 0x19C }
  - { offset: 0xD7705, size: 0x8, addend: 0x0, symName: __ZL25ggml_graph_compute_helperP18ggml_backend_schedP11ggml_cgraphi, symObjAddr: 0x1CA10, symBinAddr: 0x24A10, symSize: 0xC0 }
  - { offset: 0xD789C, size: 0x8, addend: 0x0, symName: __ZL25whisper_build_graph_crossR15whisper_contextR13whisper_state, symObjAddr: 0x1D0A0, symBinAddr: 0x250A0, symSize: 0x2E0 }
  - { offset: 0xD7D23, size: 0x8, addend: 0x0, symName: _whisper_encode, symObjAddr: 0x8B1C, symBinAddr: 0x10B1C, symSize: 0x64 }
  - { offset: 0xD7E1B, size: 0x8, addend: 0x0, symName: _whisper_decode_with_state, symObjAddr: 0x8B80, symBinAddr: 0x10B80, symSize: 0x134 }
  - { offset: 0xD7F53, size: 0x8, addend: 0x0, symName: __ZL23whisper_kv_cache_seq_rmR16whisper_kv_cacheiii, symObjAddr: 0x8CB4, symBinAddr: 0x10CB4, symSize: 0x21C }
  - { offset: 0xD84A9, size: 0x8, addend: 0x0, symName: __ZL23whisper_decode_internalR15whisper_contextR13whisper_stateRK13whisper_batchibPFbPvES6_, symObjAddr: 0x8ED0, symBinAddr: 0x10ED0, symSize: 0x870 }
  - { offset: 0xD999F, size: 0x8, addend: 0x0, symName: __ZL27whisper_build_graph_decoderR15whisper_contextR13whisper_stateRK13whisper_batchbb, symObjAddr: 0x1D744, symBinAddr: 0x25744, symSize: 0xBFC }
  - { offset: 0xDAC6E, size: 0x8, addend: 0x0, symName: __ZNSt3__111basic_regexIcNS_12regex_traitsIcEEED1Ev, symObjAddr: 0x1E340, symBinAddr: 0x26340, symSize: 0x68 }
  - { offset: 0xDACC0, size: 0x8, addend: 0x0, symName: _whisper_decode, symObjAddr: 0x9740, symBinAddr: 0x11740, symSize: 0x5C }
  - { offset: 0xDC0E4, size: 0x8, addend: 0x0, symName: _whisper_tokenize, symObjAddr: 0x979C, symBinAddr: 0x1179C, symSize: 0xE18 }
  - { offset: 0xE0494, size: 0x8, addend: 0x0, symName: __ZNSt3__111basic_regexIcNS_12regex_traitsIcEEEC2B8ne180100INS_11char_traitsIcEENS_9allocatorIcEEEERKNS_12basic_stringIcT_T0_EENS_15regex_constants18syntax_option_typeE, symObjAddr: 0x1E3A8, symBinAddr: 0x263A8, symSize: 0xD8 }
  - { offset: 0xE067F, size: 0x8, addend: 0x0, symName: __ZNKSt3__111basic_regexIcNS_12regex_traitsIcEEE8__searchINS_9allocatorINS_9sub_matchIPKcEEEEEEbS8_S8_RNS_13match_resultsIS8_T_EENS_15regex_constants15match_flag_typeE, symObjAddr: 0x27858, symBinAddr: 0x2F858, symSize: 0x30C }
  - { offset: 0xE0CD1, size: 0x8, addend: 0x0, symName: __ZNSt3__113match_resultsINS_11__wrap_iterIPKcEENS_9allocatorINS_9sub_matchIS4_EEEEE8__assignB8ne180100IS3_NS5_INS6_IS3_EEEEEEvS4_S4_RKNS0_IT_T0_EEb, symObjAddr: 0x27B64, symBinAddr: 0x2FB64, symSize: 0x1BC }
  - { offset: 0xE14D1, size: 0x8, addend: 0x0, symName: __ZNKSt3__16vectorINS_12basic_stringIcNS_11char_traitsIcEENS_9allocatorIcEEEENS4_IS6_EEE20__throw_length_errorB8ne180100Ev, symObjAddr: 0x25A24, symBinAddr: 0x2DA24, symSize: 0x14 }
  - { offset: 0xE14FB, size: 0x8, addend: 0x0, symName: __ZNSt3__119__throw_regex_errorB8ne180100ILNS_15regex_constants10error_typeE2EEEvv, symObjAddr: 0x25A38, symBinAddr: 0x2DA38, symSize: 0x4C }
  - { offset: 0xE1506, size: 0x8, addend: 0x0, symName: __ZNKSt3__16vectorIiNS_9allocatorIiEEE20__throw_length_errorB8ne180100Ev, symObjAddr: 0x32884, symBinAddr: 0x3A884, symSize: 0x14 }
  - { offset: 0xE1530, size: 0x8, addend: 0x0, symName: '__ZNSt3__110__function6__funcIZ18whisper_init_stateE3$_0NS_9allocatorIS2_EEFP11ggml_cgraphvEED1Ev', symObjAddr: 0x32898, symBinAddr: 0x3A898, symSize: 0x4 }
  - { offset: 0xE153B, size: 0x8, addend: 0x0, symName: __ZNSt3__111basic_regexIcNS_12regex_traitsIcEEED1Ev, symObjAddr: 0x1E340, symBinAddr: 0x26340, symSize: 0x68 }
  - { offset: 0xE1646, size: 0x8, addend: 0x0, symName: _whisper_token_count, symObjAddr: 0xA5B4, symBinAddr: 0x125B4, symSize: 0x20 }
  - { offset: 0xE1719, size: 0x8, addend: 0x0, symName: _whisper_lang_max_id, symObjAddr: 0xA5D4, symBinAddr: 0x125D4, symSize: 0x74 }
  - { offset: 0xE1737, size: 0x8, addend: 0x0, symName: _whisper_lang_max_id, symObjAddr: 0xA5D4, symBinAddr: 0x125D4, symSize: 0x74 }
  - { offset: 0xE1767, size: 0x8, addend: 0x0, symName: _whisper_lang_max_id, symObjAddr: 0xA5D4, symBinAddr: 0x125D4, symSize: 0x74 }
  - { offset: 0xE1787, size: 0x8, addend: 0x0, symName: _whisper_lang_max_id, symObjAddr: 0xA5D4, symBinAddr: 0x125D4, symSize: 0x74 }
  - { offset: 0xE1AA1, size: 0x8, addend: 0x0, symName: _whisper_lang_id, symObjAddr: 0xA648, symBinAddr: 0x12648, symSize: 0x468 }
  - { offset: 0xE2F17, size: 0x8, addend: 0x0, symName: _whisper_lang_str_full, symObjAddr: 0xAB6C, symBinAddr: 0x12B6C, symSize: 0xBC }
  - { offset: 0xE35D5, size: 0x8, addend: 0x0, symName: _whisper_lang_auto_detect_with_state, symObjAddr: 0xAC28, symBinAddr: 0x12C28, symSize: 0x4F8 }
  - { offset: 0xE45F2, size: 0x8, addend: 0x0, symName: _whisper_token_sot, symObjAddr: 0xB120, symBinAddr: 0x13120, symSize: 0x8 }
  - { offset: 0xE4611, size: 0x8, addend: 0x0, symName: _whisper_token_lang, symObjAddr: 0xB128, symBinAddr: 0x13128, symSize: 0x10 }
  - { offset: 0xE463B, size: 0x8, addend: 0x0, symName: _whisper_token_lang, symObjAddr: 0xB128, symBinAddr: 0x13128, symSize: 0x10 }
  - { offset: 0xE4657, size: 0x8, addend: 0x0, symName: _whisper_lang_auto_detect, symObjAddr: 0xB138, symBinAddr: 0x13138, symSize: 0x14 }
  - { offset: 0xE46E4, size: 0x8, addend: 0x0, symName: _whisper_model_n_vocab, symObjAddr: 0xB14C, symBinAddr: 0x1314C, symSize: 0x8 }
  - { offset: 0xE4711, size: 0x8, addend: 0x0, symName: _whisper_model_n_audio_ctx, symObjAddr: 0xB154, symBinAddr: 0x13154, symSize: 0x8 }
  - { offset: 0xE473E, size: 0x8, addend: 0x0, symName: _whisper_model_n_audio_state, symObjAddr: 0xB15C, symBinAddr: 0x1315C, symSize: 0x8 }
  - { offset: 0xE476B, size: 0x8, addend: 0x0, symName: _whisper_model_n_audio_head, symObjAddr: 0xB164, symBinAddr: 0x13164, symSize: 0x8 }
  - { offset: 0xE4798, size: 0x8, addend: 0x0, symName: _whisper_model_n_audio_layer, symObjAddr: 0xB16C, symBinAddr: 0x1316C, symSize: 0x8 }
  - { offset: 0xE47C5, size: 0x8, addend: 0x0, symName: _whisper_model_n_text_ctx, symObjAddr: 0xB174, symBinAddr: 0x13174, symSize: 0x8 }
  - { offset: 0xE47F2, size: 0x8, addend: 0x0, symName: _whisper_model_n_text_state, symObjAddr: 0xB17C, symBinAddr: 0x1317C, symSize: 0x8 }
  - { offset: 0xE481F, size: 0x8, addend: 0x0, symName: _whisper_model_n_text_head, symObjAddr: 0xB184, symBinAddr: 0x13184, symSize: 0x8 }
  - { offset: 0xE484C, size: 0x8, addend: 0x0, symName: _whisper_model_n_text_layer, symObjAddr: 0xB18C, symBinAddr: 0x1318C, symSize: 0x8 }
  - { offset: 0xE4879, size: 0x8, addend: 0x0, symName: _whisper_model_n_mels, symObjAddr: 0xB194, symBinAddr: 0x13194, symSize: 0x8 }
  - { offset: 0xE48A6, size: 0x8, addend: 0x0, symName: _whisper_model_ftype, symObjAddr: 0xB19C, symBinAddr: 0x1319C, symSize: 0x8 }
  - { offset: 0xE48D3, size: 0x8, addend: 0x0, symName: _whisper_model_type, symObjAddr: 0xB1A4, symBinAddr: 0x131A4, symSize: 0x8 }
  - { offset: 0xE4900, size: 0x8, addend: 0x0, symName: _whisper_model_type_readable, symObjAddr: 0xB1AC, symBinAddr: 0x131AC, symSize: 0x2C }
  - { offset: 0xE492D, size: 0x8, addend: 0x0, symName: _whisper_n_len_from_state, symObjAddr: 0xB1D8, symBinAddr: 0x131D8, symSize: 0x8 }
  - { offset: 0xE494C, size: 0x8, addend: 0x0, symName: _whisper_n_len, symObjAddr: 0xB1E0, symBinAddr: 0x131E0, symSize: 0xC }
  - { offset: 0xE4979, size: 0x8, addend: 0x0, symName: _whisper_n_vocab, symObjAddr: 0xB1EC, symBinAddr: 0x131EC, symSize: 0x8 }
  - { offset: 0xE49A6, size: 0x8, addend: 0x0, symName: _whisper_n_text_ctx, symObjAddr: 0xB1F4, symBinAddr: 0x131F4, symSize: 0x8 }
  - { offset: 0xE49C5, size: 0x8, addend: 0x0, symName: _whisper_n_audio_ctx, symObjAddr: 0xB1FC, symBinAddr: 0x131FC, symSize: 0x8 }
  - { offset: 0xE49E4, size: 0x8, addend: 0x0, symName: _whisper_is_multilingual, symObjAddr: 0xB204, symBinAddr: 0x13204, symSize: 0x14 }
  - { offset: 0xE4A06, size: 0x8, addend: 0x0, symName: _whisper_is_multilingual, symObjAddr: 0xB204, symBinAddr: 0x13204, symSize: 0x14 }
  - { offset: 0xE4A25, size: 0x8, addend: 0x0, symName: _whisper_get_logits, symObjAddr: 0xB218, symBinAddr: 0x13218, symSize: 0xC }
  - { offset: 0xE4A75, size: 0x8, addend: 0x0, symName: _whisper_get_logits_from_state, symObjAddr: 0xB224, symBinAddr: 0x13224, symSize: 0x8 }
  - { offset: 0xE4AA5, size: 0x8, addend: 0x0, symName: _whisper_get_logits_from_state, symObjAddr: 0xB224, symBinAddr: 0x13224, symSize: 0x8 }
  - { offset: 0xE4B09, size: 0x8, addend: 0x0, symName: _whisper_token_to_str, symObjAddr: 0xB22C, symBinAddr: 0x1322C, symSize: 0x60 }
  - { offset: 0xE4C78, size: 0x8, addend: 0x0, symName: _whisper_token_eot, symObjAddr: 0xB28C, symBinAddr: 0x1328C, symSize: 0x8 }
  - { offset: 0xE4C97, size: 0x8, addend: 0x0, symName: _whisper_token_solm, symObjAddr: 0xB294, symBinAddr: 0x13294, symSize: 0x8 }
  - { offset: 0xE4CB6, size: 0x8, addend: 0x0, symName: _whisper_token_prev, symObjAddr: 0xB29C, symBinAddr: 0x1329C, symSize: 0x8 }
  - { offset: 0xE4CD5, size: 0x8, addend: 0x0, symName: _whisper_token_nosp, symObjAddr: 0xB2A4, symBinAddr: 0x132A4, symSize: 0x8 }
  - { offset: 0xE4CF4, size: 0x8, addend: 0x0, symName: _whisper_token_not, symObjAddr: 0xB2AC, symBinAddr: 0x132AC, symSize: 0x8 }
  - { offset: 0xE4D13, size: 0x8, addend: 0x0, symName: _whisper_token_beg, symObjAddr: 0xB2B4, symBinAddr: 0x132B4, symSize: 0x8 }
  - { offset: 0xE4D32, size: 0x8, addend: 0x0, symName: _whisper_token_translate, symObjAddr: 0xB2BC, symBinAddr: 0x132BC, symSize: 0x8 }
  - { offset: 0xE4D51, size: 0x8, addend: 0x0, symName: _whisper_token_transcribe, symObjAddr: 0xB2C4, symBinAddr: 0x132C4, symSize: 0x8 }
  - { offset: 0xE4D70, size: 0x8, addend: 0x0, symName: _whisper_get_timings, symObjAddr: 0xB2CC, symBinAddr: 0x132CC, symSize: 0x9C }
  - { offset: 0xE4E73, size: 0x8, addend: 0x0, symName: _whisper_print_timings, symObjAddr: 0xB368, symBinAddr: 0x13368, symSize: 0x2A0 }
  - { offset: 0xE5117, size: 0x8, addend: 0x0, symName: _whisper_reset_timings, symObjAddr: 0xB608, symBinAddr: 0x13608, symSize: 0x3C }
  - { offset: 0xE51CD, size: 0x8, addend: 0x0, symName: _whisper_context_default_params_by_ref, symObjAddr: 0xBA14, symBinAddr: 0x13A14, symSize: 0x44 }
  - { offset: 0xE5233, size: 0x8, addend: 0x0, symName: _whisper_full_default_params_by_ref, symObjAddr: 0xBA58, symBinAddr: 0x13A58, symSize: 0x1BC }
  - { offset: 0xE52BD, size: 0x8, addend: 0x0, symName: _whisper_full_default_params, symObjAddr: 0xBC14, symBinAddr: 0x13C14, symSize: 0x120 }
  - { offset: 0xE52E6, size: 0x8, addend: 0x0, symName: __ZNSt3__16vectorINS_12basic_stringIcNS_11char_traitsIcEENS_9allocatorIcEEEENS4_IS6_EEED1B8ne180100Ev, symObjAddr: 0xBD34, symBinAddr: 0x13D34, symSize: 0x70 }
  - { offset: 0xEB7BD, size: 0x8, addend: 0x0, symName: __ZNSt3__16vectorIiNS_9allocatorIiEEE8__appendEm, symObjAddr: 0x34638, symBinAddr: 0x3C638, symSize: 0x19C }
  - { offset: 0xEBC61, size: 0x8, addend: 0x0, symName: __ZNSt3__16vectorINS0_IZ23whisper_full_with_stateE14beam_candidateNS_9allocatorIS1_EEEENS2_IS4_EEE16__destroy_vectorclB8ne180100Ev, symObjAddr: 0x347D4, symBinAddr: 0x3C7D4, symSize: 0x174 }
  - { offset: 0xEBC6C, size: 0x8, addend: 0x0, symName: __ZNSt3__16vectorIiNS_9allocatorIiEEE6resizeEm, symObjAddr: 0x13B28, symBinAddr: 0x1BB28, symSize: 0x2C }
  - { offset: 0xEBCA4, size: 0x8, addend: 0x0, symName: __ZNSt3__16vectorIiNS_9allocatorIiEEE6resizeEm, symObjAddr: 0x13B28, symBinAddr: 0x1BB28, symSize: 0x2C }
  - { offset: 0xEBD1C, size: 0x8, addend: 0x0, symName: __ZNSt3__16vectorIiNS_9allocatorIiEEE9push_backB8ne180100EOi, symObjAddr: 0x13B54, symBinAddr: 0x1BB54, symSize: 0x160 }
  - { offset: 0xEC1D1, size: 0x8, addend: 0x0, symName: __ZN15whisper_grammaraSEOS_, symObjAddr: 0x13CB4, symBinAddr: 0x1BCB4, symSize: 0x118 }
  - { offset: 0xEC1DC, size: 0x8, addend: 0x0, symName: __ZL29whisper_grammar_advance_stackRKNSt3__16vectorINS0_I23whisper_grammar_elementNS_9allocatorIS1_EEEENS2_IS4_EEEERKNS0_IPKS1_NS2_ISA_EEEERNS0_ISC_NS2_ISC_EEEE, symObjAddr: 0x2A288, symBinAddr: 0x32288, symSize: 0x504 }
  - { offset: 0xED6E9, size: 0x8, addend: 0x0, symName: __ZNSt3__16vectorIiNS_9allocatorIiEEE18__assign_with_sizeB8ne180100IPKiS6_EEvT_T0_l, symObjAddr: 0x34948, symBinAddr: 0x3C948, symSize: 0x144 }
  - { offset: 0xEE19F, size: 0x8, addend: 0x0, symName: __ZNSt3__16vectorIiNS_9allocatorIiEEE18__insert_with_sizeB8ne180100INS_11__wrap_iterIPiEES7_EES7_NS5_IPKiEET_T0_l, symObjAddr: 0x34A8C, symBinAddr: 0x3CA8C, symSize: 0x3A8 }
  - { offset: 0xEE1C4, size: 0x8, addend: 0x0, symName: __ZNSt3__16vectorIiNS_9allocatorIiEEE18__insert_with_sizeB8ne180100INS_11__wrap_iterIPiEES7_EES7_NS5_IPKiEET_T0_l, symObjAddr: 0x34A8C, symBinAddr: 0x3CA8C, symSize: 0x3A8 }
  - { offset: 0xEEF38, size: 0x8, addend: 0x0, symName: '__ZNSt3__114__thread_proxyB8ne180100INS_5tupleIJNS_10unique_ptrINS_15__thread_structENS_14default_deleteIS3_EEEEZ23whisper_full_with_stateE3$_0EEEEEPvS9_', symObjAddr: 0x34E34, symBinAddr: 0x3CE34, symSize: 0x78 }
  - { offset: 0xEEF55, size: 0x8, addend: 0x0, symName: __ZL22whisper_process_logitsR15whisper_contextR13whisper_stateR15whisper_decoder19whisper_full_paramsf, symObjAddr: 0x13DCC, symBinAddr: 0x1BDCC, symSize: 0x1854 }
  - { offset: 0xF4AD6, size: 0x8, addend: 0x0, symName: '__ZZ23whisper_full_with_stateENK3$_0clEv', symObjAddr: 0x15620, symBinAddr: 0x1D620, symSize: 0x166C }
  - { offset: 0xF9279, size: 0x8, addend: 0x0, symName: __ZNSt3__16vectorINS0_I23whisper_grammar_elementNS_9allocatorIS1_EEEENS2_IS4_EEE18__assign_with_sizeB8ne180100IPS4_S8_EEvT_T0_l, symObjAddr: 0x3094C, symBinAddr: 0x3894C, symSize: 0x274 }
  - { offset: 0xF9ED4, size: 0x8, addend: 0x0, symName: __ZNSt3__16vectorINS0_IPK23whisper_grammar_elementNS_9allocatorIS3_EEEENS4_IS6_EEE18__assign_with_sizeB8ne180100IPS6_SA_EEvT_T0_l, symObjAddr: 0x30D04, symBinAddr: 0x38D04, symSize: 0x274 }
  - { offset: 0xFAB2F, size: 0x8, addend: 0x0, symName: __ZNSt3__16vectorI18whisper_token_dataNS_9allocatorIS1_EEE8__appendEm, symObjAddr: 0x340B4, symBinAddr: 0x3C0B4, symSize: 0x1E0 }
  - { offset: 0xFB050, size: 0x8, addend: 0x0, symName: __ZNSt3__16vectorI15whisper_segmentNS_9allocatorIS1_EEE21__push_back_slow_pathIS1_EEPS1_OT_, symObjAddr: 0x34294, symBinAddr: 0x3C294, symSize: 0x1D4 }
  - { offset: 0xFB05B, size: 0x8, addend: 0x0, symName: __ZNSt3__16__treeINS_12__value_typeIiiEENS_19__map_value_compareIiS2_NS_4lessIiEELb1EEENS_9allocatorIS2_EEE7destroyEPNS_11__tree_nodeIS2_PvEE, symObjAddr: 0x310BC, symBinAddr: 0x390BC, symSize: 0x40 }
  - { offset: 0xFB1A6, size: 0x8, addend: 0x0, symName: __ZL12to_timestampxb, symObjAddr: 0x16CE4, symBinAddr: 0x1ECE4, symSize: 0x174 }
  - { offset: 0xFB66B, size: 0x8, addend: 0x0, symName: __ZNSt3__16vectorI15whisper_segmentNS_9allocatorIS1_EEE21__push_back_slow_pathIS1_EEPS1_OT_, symObjAddr: 0x34294, symBinAddr: 0x3C294, symSize: 0x1D4 }
  - { offset: 0xFBFE6, size: 0x8, addend: 0x0, symName: __ZNKSt3__16vectorI15whisper_segmentNS_9allocatorIS1_EEE20__throw_length_errorB8ne180100Ev, symObjAddr: 0x34468, symBinAddr: 0x3C468, symSize: 0x14 }
  - { offset: 0xFBFFA, size: 0x8, addend: 0x0, symName: __ZL42whisper_exp_compute_token_level_timestampsR15whisper_contextR13whisper_stateiff, symObjAddr: 0x16EA8, symBinAddr: 0x1EEA8, symSize: 0x7D4 }
  - { offset: 0xFCD7F, size: 0x8, addend: 0x0, symName: __ZL20whisper_wrap_segmentR15whisper_contextR13whisper_stateib, symObjAddr: 0x1767C, symBinAddr: 0x1F67C, symSize: 0x434 }
  - { offset: 0xFCD93, size: 0x8, addend: 0x0, symName: __ZL20whisper_wrap_segmentR15whisper_contextR13whisper_stateib, symObjAddr: 0x1767C, symBinAddr: 0x1F67C, symSize: 0x434 }
  - { offset: 0xFE2A9, size: 0x8, addend: 0x0, symName: __ZNSt3__116allocator_traitsINS_9allocatorIZ23whisper_full_with_stateE14beam_candidateEEE7destroyB8ne180100IS2_vEEvRS3_PT_, symObjAddr: 0x3025C, symBinAddr: 0x3825C, symSize: 0xD8 }
  - { offset: 0xFEA80, size: 0x8, addend: 0x0, symName: __ZNSt3__16vectorINS0_IZ23whisper_full_with_stateE14beam_candidateNS_9allocatorIS1_EEEENS2_IS4_EEE16__destroy_vectorclB8ne180100Ev, symObjAddr: 0x347D4, symBinAddr: 0x3C7D4, symSize: 0x174 }
  - { offset: 0xFF4AE, size: 0x8, addend: 0x0, symName: __ZNKSt3__16vectorI23whisper_grammar_elementNS_9allocatorIS1_EEE20__throw_length_errorB8ne180100Ev, symObjAddr: 0x2A814, symBinAddr: 0x32814, symSize: 0x14 }
  - { offset: 0xFF4D8, size: 0x8, addend: 0x0, symName: __ZNKSt3__16vectorIPK23whisper_grammar_elementNS_9allocatorIS3_EEE20__throw_length_errorB8ne180100Ev, symObjAddr: 0x2A828, symBinAddr: 0x32828, symSize: 0x14 }
  - { offset: 0xFF4E3, size: 0x8, addend: 0x0, symName: __ZNKSt3__16vectorIPK23whisper_grammar_elementNS_9allocatorIS3_EEE20__throw_length_errorB8ne180100Ev, symObjAddr: 0x2A828, symBinAddr: 0x32828, symSize: 0x14 }
  - { offset: 0xFF50D, size: 0x8, addend: 0x0, symName: __ZNSt3__16vectorINS0_IPK23whisper_grammar_elementNS_9allocatorIS3_EEEENS4_IS6_EEE21__push_back_slow_pathIRKS6_EEPS6_OT_, symObjAddr: 0x2A83C, symBinAddr: 0x3283C, symSize: 0x20C }
  - { offset: 0xFF520, size: 0x8, addend: 0x0, symName: __ZNKSt3__16vectorINS0_I23whisper_grammar_elementNS_9allocatorIS1_EEEENS2_IS4_EEE20__throw_length_errorB8ne180100Ev, symObjAddr: 0x2A800, symBinAddr: 0x32800, symSize: 0x14 }
  - { offset: 0xFF54A, size: 0x8, addend: 0x0, symName: __ZNKSt3__16vectorI23whisper_grammar_elementNS_9allocatorIS1_EEE20__throw_length_errorB8ne180100Ev, symObjAddr: 0x2A814, symBinAddr: 0x32814, symSize: 0x14 }
  - { offset: 0xFF555, size: 0x8, addend: 0x0, symName: __ZNKSt3__16vectorINS0_IPK23whisper_grammar_elementNS_9allocatorIS3_EEEENS4_IS6_EEE20__throw_length_errorB8ne180100Ev, symObjAddr: 0x2AAB4, symBinAddr: 0x32AB4, symSize: 0x14 }
  - { offset: 0xFF57F, size: 0x8, addend: 0x0, symName: __ZNSt3__111basic_regexIcNS_12regex_traitsIcEEEC2B8ne180100EPKcNS_15regex_constants18syntax_option_typeE, symObjAddr: 0x2AAC8, symBinAddr: 0x32AC8, symSize: 0xCC }
  - { offset: 0xFF58A, size: 0x8, addend: 0x0, symName: __ZNKSt3__16vectorIZ23whisper_full_with_stateE14beam_candidateNS_9allocatorIS1_EEE20__throw_length_errorB8ne180100Ev, symObjAddr: 0x30248, symBinAddr: 0x38248, symSize: 0x14 }
  - { offset: 0xFF5B0, size: 0x8, addend: 0x0, symName: __ZNSt3__116allocator_traitsINS_9allocatorIZ23whisper_full_with_stateE14beam_candidateEEE7destroyB8ne180100IS2_vEEvRS3_PT_, symObjAddr: 0x3025C, symBinAddr: 0x3825C, symSize: 0xD8 }
  - { offset: 0xFF5D5, size: 0x8, addend: 0x0, symName: __ZN15whisper_segmentD1Ev, symObjAddr: 0x16E58, symBinAddr: 0x1EE58, symSize: 0x50 }
  - { offset: 0xFF876, size: 0x8, addend: 0x0, symName: _whisper_full_with_state.cold.1, symObjAddr: 0x378E0, symBinAddr: 0xF7018, symSize: 0x38 }
  - { offset: 0xFF938, size: 0x8, addend: 0x0, symName: _whisper_full_with_state.cold.2, symObjAddr: 0x37918, symBinAddr: 0xF7050, symSize: 0x38 }
  - { offset: 0xFF9FA, size: 0x8, addend: 0x0, symName: __ZNSt3__110unique_ptrI12ggml_backend20ggml_backend_deleterED1B8ne180100Ev, symObjAddr: 0x314FC, symBinAddr: 0x394FC, symSize: 0x34 }
  - { offset: 0xFFA96, size: 0x8, addend: 0x0, symName: _whisper_full_with_state.cold.3, symObjAddr: 0x37950, symBinAddr: 0xF7088, symSize: 0x44 }
  - { offset: 0xFFCA3, size: 0x8, addend: 0x0, symName: __ZNSt3__16vectorINS_6threadENS_9allocatorIS1_EEED1B8ne180100Ev, symObjAddr: 0x16C8C, symBinAddr: 0x1EC8C, symSize: 0x58 }
  - { offset: 0xFFE35, size: 0x8, addend: 0x0, symName: __ZNSt3__16vectorINS0_IPK23whisper_grammar_elementNS_9allocatorIS3_EEEENS4_IS6_EEED1B8ne180100Ev, symObjAddr: 0x2A78C, symBinAddr: 0x3278C, symSize: 0x74 }
  - { offset: 0x100100, size: 0x8, addend: 0x0, symName: __ZNSt3__16vectorIZ23whisper_full_with_stateE14beam_candidateNS_9allocatorIS1_EEED1B8ne180100Ev, symObjAddr: 0x17AB0, symBinAddr: 0x1FAB0, symSize: 0x60 }
  - { offset: 0x100256, size: 0x8, addend: 0x0, symName: __ZN15whisper_grammaraSEOS_, symObjAddr: 0x13CB4, symBinAddr: 0x1BCB4, symSize: 0x118 }
  - { offset: 0x1014AD, size: 0x8, addend: 0x0, symName: __ZNSt3__111basic_regexIcNS_12regex_traitsIcEEEC2B8ne180100EPKcNS_15regex_constants18syntax_option_typeE, symObjAddr: 0x2AAC8, symBinAddr: 0x32AC8, symSize: 0xCC }
  - { offset: 0x101686, size: 0x8, addend: 0x0, symName: __ZNSt3__16vectorINS_4pairINS0_IjNS_9allocatorIjEEEE20whisper_partial_utf8EENS2_IS6_EEE21__push_back_slow_pathIS6_EEPS6_OT_, symObjAddr: 0x2EB8C, symBinAddr: 0x36B8C, symSize: 0x154 }
  - { offset: 0x101DDD, size: 0x8, addend: 0x0, symName: __ZNKSt3__16vectorINS_4pairINS0_IjNS_9allocatorIjEEEE20whisper_partial_utf8EENS2_IS6_EEE20__throw_length_errorB8ne180100Ev, symObjAddr: 0x2ECE0, symBinAddr: 0x36CE0, symSize: 0x14 }
  - { offset: 0x101DF1, size: 0x8, addend: 0x0, symName: __ZL33whisper_grammar_reject_candidatesRKNSt3__16vectorINS0_I23whisper_grammar_elementNS_9allocatorIS1_EEEENS2_IS4_EEEERKNS0_INS0_IPKS1_NS2_ISA_EEEENS2_ISC_EEEERKNS0_I25whisper_grammar_candidateNS2_ISH_EEEE, symObjAddr: 0x2EA18, symBinAddr: 0x36A18, symSize: 0x100 }
  - { offset: 0x102231, size: 0x8, addend: 0x0, symName: __ZL22whisper_process_logitsR15whisper_contextR13whisper_stateR15whisper_decoder19whisper_full_paramsf.cold.1, symObjAddr: 0x37994, symBinAddr: 0xF70CC, symSize: 0x38 }
  - { offset: 0x102249, size: 0x8, addend: 0x0, symName: __ZNKSt3__16vectorI25whisper_grammar_candidateNS_9allocatorIS1_EEE20__throw_length_errorB8ne180100Ev, symObjAddr: 0x2ECF4, symBinAddr: 0x36CF4, symSize: 0x14 }
  - { offset: 0x102273, size: 0x8, addend: 0x0, symName: __ZL43whisper_grammar_reject_candidates_for_stackRKNSt3__16vectorINS0_I23whisper_grammar_elementNS_9allocatorIS1_EEEENS2_IS4_EEEERKNS0_IPKS1_NS2_ISA_EEEERKNS0_I25whisper_grammar_candidateNS2_ISF_EEEE, symObjAddr: 0x2ED08, symBinAddr: 0x36D08, symSize: 0xC7C }
  - { offset: 0x10227E, size: 0x8, addend: 0x0, symName: __ZNSt3__16vectorINS_4pairINS0_IjNS_9allocatorIjEEEE20whisper_partial_utf8EENS2_IS6_EEED1B8ne180100Ev, symObjAddr: 0x2EB18, symBinAddr: 0x36B18, symSize: 0x74 }
  - { offset: 0x102DE4, size: 0x8, addend: 0x0, symName: __ZNSt3__16vectorI12whisper_pairIdiENS_9allocatorIS2_EEE8__appendEm, symObjAddr: 0x30054, symBinAddr: 0x38054, symSize: 0x1E0 }
  - { offset: 0x10332E, size: 0x8, addend: 0x0, symName: __ZNKSt3__16vectorI12whisper_pairIdiENS_9allocatorIS2_EEE20__throw_length_errorB8ne180100Ev, symObjAddr: 0x30234, symBinAddr: 0x38234, symSize: 0x14 }
  - { offset: 0x103339, size: 0x8, addend: 0x0, symName: __ZNSt3__121discrete_distributionIiE10param_typeC2B8ne180100INS_11__wrap_iterIPKfEEEET_S8_, symObjAddr: 0x2FA68, symBinAddr: 0x37A68, symSize: 0x12C }
  - { offset: 0x1036CE, size: 0x8, addend: 0x0, symName: __ZNSt3__121discrete_distributionIiEclINS_23mersenne_twister_engineIjLm32ELm624ELm397ELm31ELj2567483615ELm11ELj4294967295ELm7ELj2636928640ELm15ELj4022730752ELm18ELj1812433253EEEEEiRT_RKNS1_10param_typeE, symObjAddr: 0x2FEE0, symBinAddr: 0x37EE0, symSize: 0x174 }
  - { offset: 0x103725, size: 0x8, addend: 0x0, symName: __ZNSt3__121discrete_distributionIiEclINS_23mersenne_twister_engineIjLm32ELm624ELm397ELm31ELj2567483615ELm11ELj4294967295ELm7ELj2636928640ELm15ELj4022730752ELm18ELj1812433253EEEEEiRT_RKNS1_10param_typeE, symObjAddr: 0x2FEE0, symBinAddr: 0x37EE0, symSize: 0x174 }
  - { offset: 0x103A57, size: 0x8, addend: 0x0, symName: __ZNSt3__16vectorINS0_I23whisper_grammar_elementNS_9allocatorIS1_EEEENS2_IS4_EEEC2ERKS6_, symObjAddr: 0x30334, symBinAddr: 0x38334, symSize: 0xD4 }
  - { offset: 0x103D28, size: 0x8, addend: 0x0, symName: __ZNSt3__16vectorINS0_IPK23whisper_grammar_elementNS_9allocatorIS3_EEEENS4_IS6_EEEC2ERKS8_, symObjAddr: 0x30574, symBinAddr: 0x38574, symSize: 0xD4 }
  - { offset: 0x103FF9, size: 0x8, addend: 0x0, symName: '__ZZ23whisper_full_with_stateENK3$_0clEv.cold.1', symObjAddr: 0x379CC, symBinAddr: 0xF7104, symSize: 0x44 }
  - { offset: 0x1041F1, size: 0x8, addend: 0x0, symName: __ZZ23whisper_full_with_stateEN14beam_candidateD1Ev, symObjAddr: 0x2F984, symBinAddr: 0x37984, symSize: 0xD0 }
  - { offset: 0x104B7A, size: 0x8, addend: 0x0, symName: __ZN15whisper_segmentC2ERKS_, symObjAddr: 0x310FC, symBinAddr: 0x390FC, symSize: 0x13C }
  - { offset: 0x1051DA, size: 0x8, addend: 0x0, symName: __ZNSt3__16vectorI18whisper_token_dataNS_9allocatorIS1_EEE18__insert_with_sizeB8ne180100INS_11__wrap_iterIPS1_EES8_EES8_NS6_IPKS1_EET_T0_l, symObjAddr: 0x31238, symBinAddr: 0x39238, symSize: 0x2C4 }
  - { offset: 0x105F7A, size: 0x8, addend: 0x0, symName: __ZNSt3__110unique_ptrI12ggml_backend20ggml_backend_deleterED1B8ne180100Ev, symObjAddr: 0x314FC, symBinAddr: 0x394FC, symSize: 0x34 }
  - { offset: 0x105F97, size: 0x8, addend: 0x0, symName: __ZNSt3__16vectorI18whisper_token_dataNS_9allocatorIS1_EEE18__assign_with_sizeB8ne180100IPS1_S6_EEvT_T0_l, symObjAddr: 0x307B4, symBinAddr: 0x387B4, symSize: 0x198 }
  - { offset: 0x106A42, size: 0x8, addend: 0x0, symName: __ZNSt3__16vectorINS0_I23whisper_grammar_elementNS_9allocatorIS1_EEEENS2_IS4_EEE18__assign_with_sizeB8ne180100IPS4_S8_EEvT_T0_l, symObjAddr: 0x3094C, symBinAddr: 0x3894C, symSize: 0x274 }
  - { offset: 0x106A55, size: 0x8, addend: 0x0, symName: _whisper_full, symObjAddr: 0x17B10, symBinAddr: 0x1FB10, symSize: 0x64 }
  - { offset: 0x1070B5, size: 0x8, addend: 0x0, symName: _whisper_full_parallel, symObjAddr: 0x17B74, symBinAddr: 0x1FB74, symSize: 0x7F8 }
  - { offset: 0x10864E, size: 0x8, addend: 0x0, symName: __ZNSt3__16threadC2IRFiP15whisper_contextP13whisper_state19whisper_full_paramsPKfiEJRS3_RS5_S6_S8_RKiEvEEOT_DpOT0_, symObjAddr: 0x37558, symBinAddr: 0x3F558, symSize: 0x128 }
  - { offset: 0x108C55, size: 0x8, addend: 0x0, symName: __ZNKSt3__16vectorIP13whisper_stateNS_9allocatorIS2_EEE20__throw_length_errorB8ne180100Ev, symObjAddr: 0x37544, symBinAddr: 0x3F544, symSize: 0x14 }
  - { offset: 0x108C7F, size: 0x8, addend: 0x0, symName: __ZNSt3__16threadC2IRFiP15whisper_contextP13whisper_state19whisper_full_paramsPKfiEJRS3_RS5_S6_S8_RKiEvEEOT_DpOT0_, symObjAddr: 0x37558, symBinAddr: 0x3F558, symSize: 0x128 }
  - { offset: 0x108C8A, size: 0x8, addend: 0x0, symName: _whisper_full_parallel.cold.1, symObjAddr: 0x37A10, symBinAddr: 0xF7148, symSize: 0x38 }
  - { offset: 0x108D4C, size: 0x8, addend: 0x0, symName: _whisper_full_n_segments_from_state, symObjAddr: 0x1836C, symBinAddr: 0x2036C, symSize: 0x20 }
  - { offset: 0x108D7C, size: 0x8, addend: 0x0, symName: _whisper_full_n_segments_from_state, symObjAddr: 0x1836C, symBinAddr: 0x2036C, symSize: 0x20 }
  - { offset: 0x108D9C, size: 0x8, addend: 0x0, symName: _whisper_full_n_segments, symObjAddr: 0x1838C, symBinAddr: 0x2038C, symSize: 0x24 }
  - { offset: 0x108DEA, size: 0x8, addend: 0x0, symName: _whisper_full_lang_id_from_state, symObjAddr: 0x183B0, symBinAddr: 0x203B0, symSize: 0xC }
  - { offset: 0x108E17, size: 0x8, addend: 0x0, symName: _whisper_full_lang_id, symObjAddr: 0x183BC, symBinAddr: 0x203BC, symSize: 0x10 }
  - { offset: 0x108E44, size: 0x8, addend: 0x0, symName: _whisper_full_get_segment_t0_from_state, symObjAddr: 0x183CC, symBinAddr: 0x203CC, symSize: 0x14 }
  - { offset: 0x108E83, size: 0x8, addend: 0x0, symName: _whisper_full_get_segment_t0_from_state, symObjAddr: 0x183CC, symBinAddr: 0x203CC, symSize: 0x14 }
  - { offset: 0x108EA3, size: 0x8, addend: 0x0, symName: _whisper_full_get_segment_t0, symObjAddr: 0x183E0, symBinAddr: 0x203E0, symSize: 0x18 }
  - { offset: 0x108F00, size: 0x8, addend: 0x0, symName: _whisper_full_get_segment_t1_from_state, symObjAddr: 0x183F8, symBinAddr: 0x203F8, symSize: 0x14 }
  - { offset: 0x108F3F, size: 0x8, addend: 0x0, symName: _whisper_full_get_segment_t1_from_state, symObjAddr: 0x183F8, symBinAddr: 0x203F8, symSize: 0x14 }
  - { offset: 0x108F5F, size: 0x8, addend: 0x0, symName: _whisper_full_get_segment_t1, symObjAddr: 0x1840C, symBinAddr: 0x2040C, symSize: 0x18 }
  - { offset: 0x108FBE, size: 0x8, addend: 0x0, symName: _whisper_full_get_segment_speaker_turn_next_from_state, symObjAddr: 0x18424, symBinAddr: 0x20424, symSize: 0x14 }
  - { offset: 0x108FFD, size: 0x8, addend: 0x0, symName: _whisper_full_get_segment_speaker_turn_next_from_state, symObjAddr: 0x18424, symBinAddr: 0x20424, symSize: 0x14 }
  - { offset: 0x10901D, size: 0x8, addend: 0x0, symName: _whisper_full_get_segment_speaker_turn_next, symObjAddr: 0x18438, symBinAddr: 0x20438, symSize: 0x18 }
  - { offset: 0x10907C, size: 0x8, addend: 0x0, symName: _whisper_full_get_segment_text_from_state, symObjAddr: 0x18450, symBinAddr: 0x20450, symSize: 0x24 }
  - { offset: 0x1090BB, size: 0x8, addend: 0x0, symName: _whisper_full_get_segment_text_from_state, symObjAddr: 0x18450, symBinAddr: 0x20450, symSize: 0x24 }
  - { offset: 0x109164, size: 0x8, addend: 0x0, symName: _whisper_full_get_segment_text, symObjAddr: 0x18474, symBinAddr: 0x20474, symSize: 0x28 }
  - { offset: 0x10924C, size: 0x8, addend: 0x0, symName: _whisper_full_n_tokens_from_state, symObjAddr: 0x1849C, symBinAddr: 0x2049C, symSize: 0x28 }
  - { offset: 0x10928B, size: 0x8, addend: 0x0, symName: _whisper_full_n_tokens_from_state, symObjAddr: 0x1849C, symBinAddr: 0x2049C, symSize: 0x28 }
  - { offset: 0x1092CC, size: 0x8, addend: 0x0, symName: _whisper_full_n_tokens, symObjAddr: 0x184C4, symBinAddr: 0x204C4, symSize: 0x2C }
  - { offset: 0x10934C, size: 0x8, addend: 0x0, symName: _whisper_full_get_token_text_from_state, symObjAddr: 0x184F0, symBinAddr: 0x204F0, symSize: 0x104 }
  - { offset: 0x1097C6, size: 0x8, addend: 0x0, symName: _whisper_full_get_token_text, symObjAddr: 0x185F4, symBinAddr: 0x205F4, symSize: 0x108 }
  - { offset: 0x109C2F, size: 0x8, addend: 0x0, symName: _whisper_full_get_token_id_from_state, symObjAddr: 0x186FC, symBinAddr: 0x206FC, symSize: 0x20 }
  - { offset: 0x109C7D, size: 0x8, addend: 0x0, symName: _whisper_full_get_token_id_from_state, symObjAddr: 0x186FC, symBinAddr: 0x206FC, symSize: 0x20 }
  - { offset: 0x109CBE, size: 0x8, addend: 0x0, symName: _whisper_full_get_token_id, symObjAddr: 0x1871C, symBinAddr: 0x2071C, symSize: 0x24 }
  - { offset: 0x109D4D, size: 0x8, addend: 0x0, symName: _whisper_full_get_token_data_from_state, symObjAddr: 0x18740, symBinAddr: 0x20740, symSize: 0x34 }
  - { offset: 0x109D99, size: 0x8, addend: 0x0, symName: _whisper_full_get_token_data_from_state, symObjAddr: 0x18740, symBinAddr: 0x20740, symSize: 0x34 }
  - { offset: 0x109DDA, size: 0x8, addend: 0x0, symName: _whisper_full_get_token_data, symObjAddr: 0x18774, symBinAddr: 0x20774, symSize: 0x38 }
  - { offset: 0x109E67, size: 0x8, addend: 0x0, symName: _whisper_full_get_token_p_from_state, symObjAddr: 0x187AC, symBinAddr: 0x207AC, symSize: 0x20 }
  - { offset: 0x109EB3, size: 0x8, addend: 0x0, symName: _whisper_full_get_token_p_from_state, symObjAddr: 0x187AC, symBinAddr: 0x207AC, symSize: 0x20 }
  - { offset: 0x109EF4, size: 0x8, addend: 0x0, symName: _whisper_full_get_token_p, symObjAddr: 0x187CC, symBinAddr: 0x207CC, symSize: 0x24 }
  - { offset: 0x109F81, size: 0x8, addend: 0x0, symName: _whisper_full_get_segment_no_speech_prob, symObjAddr: 0x187F0, symBinAddr: 0x207F0, symSize: 0x18 }
  - { offset: 0x109FDE, size: 0x8, addend: 0x0, symName: _whisper_full_get_segment_no_speech_prob_from_state, symObjAddr: 0x18808, symBinAddr: 0x20808, symSize: 0x14 }
  - { offset: 0x10A01B, size: 0x8, addend: 0x0, symName: _whisper_full_get_segment_no_speech_prob_from_state, symObjAddr: 0x18808, symBinAddr: 0x20808, symSize: 0x14 }
  - { offset: 0x10A03B, size: 0x8, addend: 0x0, symName: _whisper_bench_memcpy, symObjAddr: 0x1881C, symBinAddr: 0x2081C, symSize: 0x28 }
  - { offset: 0x10A5E5, size: 0x8, addend: 0x0, symName: _whisper_bench_memcpy_str.cold.1, symObjAddr: 0x37A48, symBinAddr: 0xF7180, symSize: 0x38 }
  - { offset: 0x10A6A7, size: 0x8, addend: 0x0, symName: _whisper_bench_ggml_mul_mat, symObjAddr: 0x191C0, symBinAddr: 0x211C0, symSize: 0x28 }
  - { offset: 0x10AAE4, size: 0x8, addend: 0x0, symName: __ZL16ggml_mul_mat_padP12ggml_contextP11ggml_tensorS2_i, symObjAddr: 0x19840, symBinAddr: 0x21840, symSize: 0x158 }
  - { offset: 0x10AD10, size: 0x8, addend: 0x0, symName: _whisper_log_set, symObjAddr: 0x19998, symBinAddr: 0x21998, symSize: 0x24 }
  - { offset: 0x10AD5F, size: 0x8, addend: 0x0, symName: __ZL28whisper_log_callback_default14ggml_log_levelPKcPv, symObjAddr: 0x199BC, symBinAddr: 0x219BC, symSize: 0x40 }
  - { offset: 0x10AFEF, size: 0x8, addend: 0x0, symName: __ZN15whisper_decoderD2Ev, symObjAddr: 0x19E7C, symBinAddr: 0x21E7C, symSize: 0x110 }
  - { offset: 0x10BC81, size: 0x8, addend: 0x0, symName: __ZNSt12length_errorC1B8ne180100EPKc, symObjAddr: 0x1A030, symBinAddr: 0x22030, symSize: 0x24 }
  - { offset: 0x10C3A6, size: 0x8, addend: 0x0, symName: __ZNKSt3__16vectorI15whisper_kv_cellNS_9allocatorIS1_EEE20__throw_length_errorB8ne180100Ev, symObjAddr: 0x1A264, symBinAddr: 0x22264, symSize: 0x14 }
  - { offset: 0x10C3D0, size: 0x8, addend: 0x0, symName: __ZL28get_alignment_heads_by_layerRK22whisper_context_paramsiii, symObjAddr: 0x1A278, symBinAddr: 0x22278, symSize: 0x470 }
  - { offset: 0x10C739, size: 0x8, addend: 0x0, symName: __ZNKSt3__16vectorIjNS_9allocatorIjEEE20__throw_length_errorB8ne180100Ev, symObjAddr: 0x1A75C, symBinAddr: 0x2275C, symSize: 0x14 }
  - { offset: 0x10C763, size: 0x8, addend: 0x0, symName: __ZNKSt3__16vectorIP11ggml_tensorNS_9allocatorIS2_EEE20__throw_length_errorB8ne180100Ev, symObjAddr: 0x1A770, symBinAddr: 0x22770, symSize: 0x14 }
  - { offset: 0x10C76E, size: 0x8, addend: 0x0, symName: __ZNSt12out_of_rangeC1B8ne180100EPKc, symObjAddr: 0x1A738, symBinAddr: 0x22738, symSize: 0x24 }
  - { offset: 0x10C865, size: 0x8, addend: 0x0, symName: __ZNSt3__117bad_function_callD1Ev, symObjAddr: 0x1A7E0, symBinAddr: 0x227E0, symSize: 0x4 }
  - { offset: 0x10C889, size: 0x8, addend: 0x0, symName: __ZNSt3__117bad_function_callD1Ev, symObjAddr: 0x1A7E0, symBinAddr: 0x227E0, symSize: 0x4 }
  - { offset: 0x10C8BE, size: 0x8, addend: 0x0, symName: __ZNSt3__117bad_function_callD0Ev, symObjAddr: 0x1A7E4, symBinAddr: 0x227E4, symSize: 0x14 }
  - { offset: 0x10C97F, size: 0x8, addend: 0x0, symName: '__ZZ43whisper_init_from_file_with_params_no_stateEN3$_08__invokeEPvS0_m', symObjAddr: 0x1A7F8, symBinAddr: 0x227F8, symSize: 0x24 }
  - { offset: 0x10CA7A, size: 0x8, addend: 0x0, symName: '__ZZ43whisper_init_from_file_with_params_no_stateEN3$_18__invokeEPv', symObjAddr: 0x1A81C, symBinAddr: 0x2281C, symSize: 0x18 }
  - { offset: 0x10CAA7, size: 0x8, addend: 0x0, symName: '__ZZ43whisper_init_from_file_with_params_no_stateEN3$_18__invokeEPv', symObjAddr: 0x1A81C, symBinAddr: 0x2281C, symSize: 0x18 }
  - { offset: 0x10CB69, size: 0x8, addend: 0x0, symName: '__ZZ43whisper_init_from_file_with_params_no_stateEN3$_28__invokeEPv', symObjAddr: 0x1A834, symBinAddr: 0x22834, symSize: 0x48 }
  - { offset: 0x10CC84, size: 0x8, addend: 0x0, symName: '__ZZ45whisper_init_from_buffer_with_params_no_stateEN3$_08__invokeEPvS0_m', symObjAddr: 0x1A87C, symBinAddr: 0x2287C, symSize: 0x58 }
  - { offset: 0x10CD53, size: 0x8, addend: 0x0, symName: '__ZZ45whisper_init_from_buffer_with_params_no_stateEN3$_18__invokeEPv', symObjAddr: 0x1A8D4, symBinAddr: 0x228D4, symSize: 0x10 }
  - { offset: 0x10CD9E, size: 0x8, addend: 0x0, symName: '__ZZ45whisper_init_from_buffer_with_params_no_stateEN3$_28__invokeEPv', symObjAddr: 0x1A8E4, symBinAddr: 0x228E4, symSize: 0x4 }
  - { offset: 0x10D57F, size: 0x8, addend: 0x0, symName: __ZNKSt3__16vectorI21whisper_layer_encoderNS_9allocatorIS1_EEE20__throw_length_errorB8ne180100Ev, symObjAddr: 0x1AFF4, symBinAddr: 0x22FF4, symSize: 0x14 }
  - { offset: 0x10D5A9, size: 0x8, addend: 0x0, symName: __ZNSt3__16vectorI21whisper_layer_decoderNS_9allocatorIS1_EEE8__appendEm, symObjAddr: 0x1B008, symBinAddr: 0x23008, symSize: 0x1BC }
  - { offset: 0x10D915, size: 0x8, addend: 0x0, symName: __ZNKSt3__16vectorI21whisper_layer_decoderNS_9allocatorIS1_EEE20__throw_length_errorB8ne180100Ev, symObjAddr: 0x1B1C4, symBinAddr: 0x231C4, symSize: 0x14 }
  - { offset: 0x10D93F, size: 0x8, addend: 0x0, symName: __ZNSt3__16__treeINS_12__value_typeINS_12basic_stringIcNS_11char_traitsIcEENS_9allocatorIcEEEEP11ggml_tensorEENS_19__map_value_compareIS7_SA_NS_4lessIS7_EELb1EEENS5_ISA_EEE25__emplace_unique_key_argsIS7_JRKNS_21piecewise_construct_tENS_5tupleIJOS7_EEENSL_IJEEEEEENS_4pairINS_15__tree_iteratorISA_PNS_11__tree_nodeISA_PvEElEEbEERKT_DpOT0_, symObjAddr: 0x1B1D8, symBinAddr: 0x231D8, symSize: 0x178 }
  - { offset: 0x10E102, size: 0x8, addend: 0x0, symName: __ZL3fftPfiS_, symObjAddr: 0x1BF10, symBinAddr: 0x23F10, symSize: 0x718 }
  - { offset: 0x10EBD6, size: 0x8, addend: 0x0, symName: __ZNSt3__110unique_ptrINS_15__thread_structENS_14default_deleteIS1_EEED1B8ne180100Ev, symObjAddr: 0x1C840, symBinAddr: 0x24840, symSize: 0x34 }
  - { offset: 0x10ED14, size: 0x8, addend: 0x0, symName: __ZNSt3__110unique_ptrINS_5tupleIJNS0_INS_15__thread_structENS_14default_deleteIS2_EEEEPFviPKfRKNS_6vectorIfNS_9allocatorIfEEEEiiiiRK15whisper_filtersR11whisper_melEiS7_NS_17reference_wrapperISC_EExiiiNSL_ISF_EENSL_ISH_EEEEENS3_ISP_EEED1B8ne180100Ev, symObjAddr: 0x1C7F8, symBinAddr: 0x247F8, symSize: 0x48 }
  - { offset: 0x10F3B7, size: 0x8, addend: 0x0, symName: __ZL27whisper_build_graph_encoderR15whisper_contextR13whisper_state.cold.1, symObjAddr: 0x37A80, symBinAddr: 0xF71B8, symSize: 0x38 }
  - { offset: 0x10F432, size: 0x8, addend: 0x0, symName: __ZL27whisper_build_graph_decoderR15whisper_contextR13whisper_stateRK13whisper_batchbb.cold.1, symObjAddr: 0x37AB8, symBinAddr: 0xF71F0, symSize: 0x38 }
  - { offset: 0x10F4EC, size: 0x8, addend: 0x0, symName: __ZNSt3__111basic_regexIcNS_12regex_traitsIcEEE7__parseINS_11__wrap_iterIPKcEEEET_S9_S9_, symObjAddr: 0x1E4E8, symBinAddr: 0x264E8, symSize: 0x208 }
  - { offset: 0x10FA24, size: 0x8, addend: 0x0, symName: __ZNSt3__110shared_ptrINS_13__empty_stateIcEEED1B8ne180100Ev, symObjAddr: 0x1E480, symBinAddr: 0x26480, symSize: 0x68 }
  - { offset: 0x110107, size: 0x8, addend: 0x0, symName: __ZNSt3__111basic_regexIcNS_12regex_traitsIcEEE13__parse_egrepINS_11__wrap_iterIPKcEEEET_S9_S9_, symObjAddr: 0x1EE40, symBinAddr: 0x26E40, symSize: 0x1B8 }
  - { offset: 0x1106F1, size: 0x8, addend: 0x0, symName: __ZNSt3__111basic_regexIcNS_12regex_traitsIcEEE24__parse_extended_reg_expINS_11__wrap_iterIPKcEEEET_S9_S9_, symObjAddr: 0x1EB20, symBinAddr: 0x26B20, symSize: 0x168 }
  - { offset: 0x110A6D, size: 0x8, addend: 0x0, symName: __ZNSt3__111basic_regexIcNS_12regex_traitsIcEEE12__parse_grepINS_11__wrap_iterIPKcEEEET_S9_S9_, symObjAddr: 0x1EC88, symBinAddr: 0x26C88, symSize: 0x1B8 }
  - { offset: 0x110A81, size: 0x8, addend: 0x0, symName: __ZNSt3__111basic_regexIcNS_12regex_traitsIcEEE16__parse_ecma_expINS_11__wrap_iterIPKcEEEET_S9_S9_, symObjAddr: 0x1E73C, symBinAddr: 0x2673C, symSize: 0x26C }
  - { offset: 0x111086, size: 0x8, addend: 0x0, symName: __ZNSt3__111basic_regexIcNS_12regex_traitsIcEEE21__parse_basic_reg_expINS_11__wrap_iterIPKcEEEET_S9_S9_, symObjAddr: 0x1E9A8, symBinAddr: 0x269A8, symSize: 0x178 }
  - { offset: 0x111457, size: 0x8, addend: 0x0, symName: __ZNSt3__111basic_regexIcNS_12regex_traitsIcEEE24__parse_extended_reg_expINS_11__wrap_iterIPKcEEEET_S9_S9_, symObjAddr: 0x1EB20, symBinAddr: 0x26B20, symSize: 0x168 }
  - { offset: 0x11146B, size: 0x8, addend: 0x0, symName: __ZNSt3__111basic_regexIcNS_12regex_traitsIcEEE12__parse_grepINS_11__wrap_iterIPKcEEEET_S9_S9_, symObjAddr: 0x1EC88, symBinAddr: 0x26C88, symSize: 0x1B8 }
  - { offset: 0x111C88, size: 0x8, addend: 0x0, symName: __ZNSt3__111basic_regexIcNS_12regex_traitsIcEEE17__parse_assertionINS_11__wrap_iterIPKcEEEET_S9_S9_, symObjAddr: 0x1F234, symBinAddr: 0x27234, symSize: 0x324 }
  - { offset: 0x1123F4, size: 0x8, addend: 0x0, symName: __ZNSt3__111basic_regexIcNS_12regex_traitsIcEEE12__parse_atomINS_11__wrap_iterIPKcEEEET_S9_S9_, symObjAddr: 0x1F558, symBinAddr: 0x27558, symSize: 0x268 }
  - { offset: 0x112881, size: 0x8, addend: 0x0, symName: __ZNSt3__111basic_regexIcNS_12regex_traitsIcEEE23__parse_ERE_dupl_symbolINS_11__wrap_iterIPKcEEEET_S9_S9_PNS_16__owns_one_stateIcEEjj, symObjAddr: 0x1F7C0, symBinAddr: 0x277C0, symSize: 0x3FC }
  - { offset: 0x112895, size: 0x8, addend: 0x0, symName: __ZNSt3__111basic_regexIcNS_12regex_traitsIcEEE23__parse_ERE_dupl_symbolINS_11__wrap_iterIPKcEEEET_S9_S9_PNS_16__owns_one_stateIcEEjj, symObjAddr: 0x1F7C0, symBinAddr: 0x277C0, symSize: 0x3FC }
  - { offset: 0x112FCC, size: 0x8, addend: 0x0, symName: __ZNSt3__111basic_regexIcNS_12regex_traitsIcEEEC1B8ne180100Ev, symObjAddr: 0x1FBBC, symBinAddr: 0x27BBC, symSize: 0x6C }
  - { offset: 0x1131FB, size: 0x8, addend: 0x0, symName: __ZNSt3__111basic_regexIcNS_12regex_traitsIcEEE18__parse_nondupl_REINS_11__wrap_iterIPKcEEEET_S9_S9_, symObjAddr: 0x26D5C, symBinAddr: 0x2ED5C, symSize: 0x204 }
  - { offset: 0x1137E6, size: 0x8, addend: 0x0, symName: __ZNSt3__111basic_regexIcNS_12regex_traitsIcEEE22__parse_RE_dupl_symbolINS_11__wrap_iterIPKcEEEET_S9_S9_PNS_16__owns_one_stateIcEEjj, symObjAddr: 0x26F60, symBinAddr: 0x2EF60, symSize: 0x2B0 }
  - { offset: 0x1137FA, size: 0x8, addend: 0x0, symName: __ZNSt3__111basic_regexIcNS_12regex_traitsIcEEE22__parse_RE_dupl_symbolINS_11__wrap_iterIPKcEEEET_S9_S9_PNS_16__owns_one_stateIcEEjj, symObjAddr: 0x26F60, symBinAddr: 0x2EF60, symSize: 0x2B0 }
  - { offset: 0x113E13, size: 0x8, addend: 0x0, symName: __ZNSt3__111basic_regexIcNS_12regex_traitsIcEEE32__parse_one_char_or_coll_elem_REINS_11__wrap_iterIPKcEEEET_S9_S9_, symObjAddr: 0x27210, symBinAddr: 0x2F210, symSize: 0x15C }
  - { offset: 0x113E6D, size: 0x8, addend: 0x0, symName: __ZNSt3__111basic_regexIcNS_12regex_traitsIcEEE22__parse_ERE_expressionINS_11__wrap_iterIPKcEEEET_S9_S9_, symObjAddr: 0x27494, symBinAddr: 0x2F494, symSize: 0x288 }
  - { offset: 0x1143B1, size: 0x8, addend: 0x0, symName: __ZNSt3__111basic_regexIcNS_12regex_traitsIcEEE20__parse_ORD_CHAR_EREINS_11__wrap_iterIPKcEEEET_S9_S9_, symObjAddr: 0x2771C, symBinAddr: 0x2F71C, symSize: 0x78 }
  - { offset: 0x1143E1, size: 0x8, addend: 0x0, symName: __ZNSt3__111__end_stateIcED1Ev, symObjAddr: 0x1F044, symBinAddr: 0x27044, symSize: 0x4 }
  - { offset: 0x11440D, size: 0x8, addend: 0x0, symName: __ZNSt3__111__end_stateIcED0Ev, symObjAddr: 0x1F048, symBinAddr: 0x27048, symSize: 0x4 }
  - { offset: 0x11442E, size: 0x8, addend: 0x0, symName: __ZNKSt3__111__end_stateIcE6__execERNS_7__stateIcEE, symObjAddr: 0x1F04C, symBinAddr: 0x2704C, symSize: 0xC }
  - { offset: 0x114464, size: 0x8, addend: 0x0, symName: __ZNKSt3__16__nodeIcE12__exec_splitEbRNS_7__stateIcEE, symObjAddr: 0x1F058, symBinAddr: 0x27058, symSize: 0x4 }
  - { offset: 0x1144A4, size: 0x8, addend: 0x0, symName: __ZNKSt3__16__nodeIcE6__execERNS_7__stateIcEE, symObjAddr: 0x1F05C, symBinAddr: 0x2705C, symSize: 0x4 }
  - { offset: 0x1144F0, size: 0x8, addend: 0x0, symName: __ZNSt3__120__shared_ptr_pointerIPNS_13__empty_stateIcEENS_10shared_ptrIS2_E27__shared_ptr_default_deleteIS2_S2_EENS_9allocatorIS2_EEED1Ev, symObjAddr: 0x1F060, symBinAddr: 0x27060, symSize: 0x4 }
  - { offset: 0x114514, size: 0x8, addend: 0x0, symName: __ZNSt3__120__shared_ptr_pointerIPNS_13__empty_stateIcEENS_10shared_ptrIS2_E27__shared_ptr_default_deleteIS2_S2_EENS_9allocatorIS2_EEED1Ev, symObjAddr: 0x1F060, symBinAddr: 0x27060, symSize: 0x4 }
  - { offset: 0x11454B, size: 0x8, addend: 0x0, symName: __ZNSt3__120__shared_ptr_pointerIPNS_13__empty_stateIcEENS_10shared_ptrIS2_E27__shared_ptr_default_deleteIS2_S2_EENS_9allocatorIS2_EEED0Ev, symObjAddr: 0x1F064, symBinAddr: 0x27064, symSize: 0x14 }
  - { offset: 0x1145B2, size: 0x8, addend: 0x0, symName: __ZNSt3__120__shared_ptr_pointerIPNS_13__empty_stateIcEENS_10shared_ptrIS2_E27__shared_ptr_default_deleteIS2_S2_EENS_9allocatorIS2_EEE16__on_zero_sharedEv, symObjAddr: 0x1F078, symBinAddr: 0x27078, symSize: 0x18 }
  - { offset: 0x11465D, size: 0x8, addend: 0x0, symName: __ZNKSt3__120__shared_ptr_pointerIPNS_13__empty_stateIcEENS_10shared_ptrIS2_E27__shared_ptr_default_deleteIS2_S2_EENS_9allocatorIS2_EEE13__get_deleterERKSt9type_info, symObjAddr: 0x1F090, symBinAddr: 0x27090, symSize: 0x7C }
  - { offset: 0x114757, size: 0x8, addend: 0x0, symName: __ZNSt3__120__shared_ptr_pointerIPNS_13__empty_stateIcEENS_10shared_ptrIS2_E27__shared_ptr_default_deleteIS2_S2_EENS_9allocatorIS2_EEE21__on_zero_shared_weakEv, symObjAddr: 0x1F10C, symBinAddr: 0x2710C, symSize: 0x4 }
  - { offset: 0x11478C, size: 0x8, addend: 0x0, symName: __ZNSt3__120__shared_ptr_pointerIPNS_13__empty_stateIcEENS_10shared_ptrIS2_E27__shared_ptr_default_deleteIS2_S2_EENS_9allocatorIS2_EEE21__on_zero_shared_weakEv, symObjAddr: 0x1F10C, symBinAddr: 0x2710C, symSize: 0x4 }
  - { offset: 0x1147B0, size: 0x8, addend: 0x0, symName: __ZNSt3__120__shared_ptr_pointerIPNS_13__empty_stateIcEENS_10shared_ptrIS2_E27__shared_ptr_default_deleteIS2_S2_EENS_9allocatorIS2_EEE21__on_zero_shared_weakEv, symObjAddr: 0x1F10C, symBinAddr: 0x2710C, symSize: 0x4 }
  - { offset: 0x1147DF, size: 0x8, addend: 0x0, symName: __ZNSt3__120__shared_ptr_pointerIPNS_13__empty_stateIcEENS_10shared_ptrIS2_E27__shared_ptr_default_deleteIS2_S2_EENS_9allocatorIS2_EEE21__on_zero_shared_weakEv, symObjAddr: 0x1F10C, symBinAddr: 0x2710C, symSize: 0x4 }
  - { offset: 0x114808, size: 0x8, addend: 0x0, symName: __ZNSt3__120__shared_ptr_pointerIPNS_13__empty_stateIcEENS_10shared_ptrIS2_E27__shared_ptr_default_deleteIS2_S2_EENS_9allocatorIS2_EEE21__on_zero_shared_weakEv, symObjAddr: 0x1F10C, symBinAddr: 0x2710C, symSize: 0x4 }
  - { offset: 0x114832, size: 0x8, addend: 0x0, symName: __ZNSt3__113__empty_stateIcED1Ev, symObjAddr: 0x1F110, symBinAddr: 0x27110, symSize: 0x44 }
  - { offset: 0x11489F, size: 0x8, addend: 0x0, symName: __ZNSt3__113__empty_stateIcED0Ev, symObjAddr: 0x1F154, symBinAddr: 0x27154, symSize: 0x44 }
  - { offset: 0x114947, size: 0x8, addend: 0x0, symName: __ZNKSt3__113__empty_stateIcE6__execERNS_7__stateIcEE, symObjAddr: 0x1F198, symBinAddr: 0x27198, symSize: 0x14 }
  - { offset: 0x11499C, size: 0x8, addend: 0x0, symName: __ZNSt3__116__owns_one_stateIcED1Ev, symObjAddr: 0x1F1AC, symBinAddr: 0x271AC, symSize: 0x44 }
  - { offset: 0x114A06, size: 0x8, addend: 0x0, symName: __ZNSt3__116__owns_one_stateIcED0Ev, symObjAddr: 0x1F1F0, symBinAddr: 0x271F0, symSize: 0x44 }
  - { offset: 0x114B7E, size: 0x8, addend: 0x0, symName: __ZNSt3__111basic_regexIcNS_12regex_traitsIcEEEC1B8ne180100Ev, symObjAddr: 0x1FBBC, symBinAddr: 0x27BBC, symSize: 0x6C }
  - { offset: 0x114C51, size: 0x8, addend: 0x0, symName: __ZNSt3__111basic_regexIcNS_12regex_traitsIcEEE16__push_lookaheadERKS3_bj, symObjAddr: 0x1FC28, symBinAddr: 0x27C28, symSize: 0xB8 }
  - { offset: 0x11506D, size: 0x8, addend: 0x0, symName: __ZNSt3__111basic_regexIcNS_12regex_traitsIcEEE26__parse_bracket_expressionINS_11__wrap_iterIPKcEEEET_S9_S9_, symObjAddr: 0x212E0, symBinAddr: 0x292E0, symSize: 0x150 }
  - { offset: 0x1152C2, size: 0x8, addend: 0x0, symName: __ZNSt3__111basic_regexIcNS_12regex_traitsIcEEE19__parse_atom_escapeINS_11__wrap_iterIPKcEEEET_S9_S9_, symObjAddr: 0x2117C, symBinAddr: 0x2917C, symSize: 0x164 }
  - { offset: 0x1154C7, size: 0x8, addend: 0x0, symName: __ZNSt3__111basic_regexIcNS_12regex_traitsIcEEE26__parse_bracket_expressionINS_11__wrap_iterIPKcEEEET_S9_S9_, symObjAddr: 0x212E0, symBinAddr: 0x292E0, symSize: 0x150 }
  - { offset: 0x1154DB, size: 0x8, addend: 0x0, symName: __ZNSt3__111basic_regexIcNS_12regex_traitsIcEEE25__parse_pattern_characterINS_11__wrap_iterIPKcEEEET_S9_S9_, symObjAddr: 0x2147C, symBinAddr: 0x2947C, symSize: 0x70 }
  - { offset: 0x1156B8, size: 0x8, addend: 0x0, symName: __ZNSt3__111basic_regexIcNS_12regex_traitsIcEEE11__push_loopEmmPNS_16__owns_one_stateIcEEmmb, symObjAddr: 0x265BC, symBinAddr: 0x2E5BC, symSize: 0x138 }
  - { offset: 0x115CCE, size: 0x8, addend: 0x0, symName: __ZNSt3__120__l_anchor_multilineIcED1Ev, symObjAddr: 0x1FD2C, symBinAddr: 0x27D2C, symSize: 0x44 }
  - { offset: 0x115D58, size: 0x8, addend: 0x0, symName: __ZNSt3__120__l_anchor_multilineIcED0Ev, symObjAddr: 0x1FD70, symBinAddr: 0x27D70, symSize: 0x44 }
  - { offset: 0x115DEF, size: 0x8, addend: 0x0, symName: __ZNKSt3__120__l_anchor_multilineIcE6__execERNS_7__stateIcEE, symObjAddr: 0x1FDB4, symBinAddr: 0x27DB4, symSize: 0x60 }
  - { offset: 0x115E56, size: 0x8, addend: 0x0, symName: __ZNSt3__120__r_anchor_multilineIcED1Ev, symObjAddr: 0x1FE14, symBinAddr: 0x27E14, symSize: 0x44 }
  - { offset: 0x115EE0, size: 0x8, addend: 0x0, symName: __ZNSt3__120__r_anchor_multilineIcED0Ev, symObjAddr: 0x1FE58, symBinAddr: 0x27E58, symSize: 0x44 }
  - { offset: 0x115F77, size: 0x8, addend: 0x0, symName: __ZNKSt3__120__r_anchor_multilineIcE6__execERNS_7__stateIcEE, symObjAddr: 0x1FE9C, symBinAddr: 0x27E9C, symSize: 0x50 }
  - { offset: 0x115FDE, size: 0x8, addend: 0x0, symName: __ZNSt3__115__word_boundaryIcNS_12regex_traitsIcEEED1Ev, symObjAddr: 0x1FEEC, symBinAddr: 0x27EEC, symSize: 0x58 }
  - { offset: 0x1160A6, size: 0x8, addend: 0x0, symName: __ZNSt3__115__word_boundaryIcNS_12regex_traitsIcEEED0Ev, symObjAddr: 0x1FF44, symBinAddr: 0x27F44, symSize: 0x58 }
  - { offset: 0x1161D9, size: 0x8, addend: 0x0, symName: __ZNKSt3__115__word_boundaryIcNS_12regex_traitsIcEEE6__execERNS_7__stateIcEE, symObjAddr: 0x1FF9C, symBinAddr: 0x27F9C, symSize: 0x154 }
  - { offset: 0x11638E, size: 0x8, addend: 0x0, symName: __ZNSt3__111__lookaheadIcNS_12regex_traitsIcEEED1Ev, symObjAddr: 0x200F0, symBinAddr: 0x280F0, symSize: 0xA0 }
  - { offset: 0x116545, size: 0x8, addend: 0x0, symName: __ZNSt3__111__lookaheadIcNS_12regex_traitsIcEEED0Ev, symObjAddr: 0x20190, symBinAddr: 0x28190, symSize: 0xA0 }
  - { offset: 0x1167D7, size: 0x8, addend: 0x0, symName: __ZNKSt3__111__lookaheadIcNS_12regex_traitsIcEEE6__execERNS_7__stateIcEE, symObjAddr: 0x20230, symBinAddr: 0x28230, symSize: 0x188 }
  - { offset: 0x116DBE, size: 0x8, addend: 0x0, symName: __ZNSt3__16vectorINS_9sub_matchIPKcEENS_9allocatorIS4_EEE6assignEmRKS4_, symObjAddr: 0x2082C, symBinAddr: 0x2882C, symSize: 0x198 }
  - { offset: 0x1173C1, size: 0x8, addend: 0x0, symName: __ZNKSt3__16vectorINS_9sub_matchIPKcEENS_9allocatorIS4_EEE20__throw_length_errorB8ne180100Ev, symObjAddr: 0x209C4, symBinAddr: 0x289C4, symSize: 0x14 }
  - { offset: 0x1173D4, size: 0x8, addend: 0x0, symName: __ZNKSt3__111basic_regexIcNS_12regex_traitsIcEEE21__match_at_start_ecmaINS_9allocatorINS_9sub_matchIPKcEEEEEEbS8_S8_RNS_13match_resultsIS8_T_EENS_15regex_constants15match_flag_typeEb, symObjAddr: 0x203B8, symBinAddr: 0x283B8, symSize: 0x474 }
  - { offset: 0x118E41, size: 0x8, addend: 0x0, symName: __ZNSt3__16vectorINS_7__stateIcEENS_9allocatorIS2_EEE21__push_back_slow_pathIS2_EEPS2_OT_, symObjAddr: 0x20B30, symBinAddr: 0x28B30, symSize: 0x1E4 }
  - { offset: 0x1197BF, size: 0x8, addend: 0x0, symName: __ZNKSt3__16vectorINS_7__stateIcEENS_9allocatorIS2_EEE20__throw_length_errorB8ne180100Ev, symObjAddr: 0x20D14, symBinAddr: 0x28D14, symSize: 0x14 }
  - { offset: 0x1197D3, size: 0x8, addend: 0x0, symName: __ZNSt3__16vectorINS_9sub_matchIPKcEENS_9allocatorIS4_EEE8__appendEmRKS4_, symObjAddr: 0x20D28, symBinAddr: 0x28D28, symSize: 0x1A0 }
  - { offset: 0x119D91, size: 0x8, addend: 0x0, symName: __ZNSt3__16vectorINS_4pairImPKcEENS_9allocatorIS4_EEE8__appendEm, symObjAddr: 0x20EC8, symBinAddr: 0x28EC8, symSize: 0x128 }
  - { offset: 0x119D9C, size: 0x8, addend: 0x0, symName: __ZNSt3__16vectorINS_4pairImPKcEENS_9allocatorIS4_EEE8__appendEm, symObjAddr: 0x20EC8, symBinAddr: 0x28EC8, symSize: 0x128 }
  - { offset: 0x11A2EF, size: 0x8, addend: 0x0, symName: __ZNKSt3__16vectorINS_4pairImPKcEENS_9allocatorIS4_EEE20__throw_length_errorB8ne180100Ev, symObjAddr: 0x20FF0, symBinAddr: 0x28FF0, symSize: 0x14 }
  - { offset: 0x11A2FA, size: 0x8, addend: 0x0, symName: __ZNSt3__17__stateIcEC2ERKS1_, symObjAddr: 0x21004, symBinAddr: 0x29004, symSize: 0x178 }
  - { offset: 0x11A9B0, size: 0x8, addend: 0x0, symName: __ZNSt3__16vectorINS_7__stateIcEENS_9allocatorIS2_EEED1B8ne180100Ev, symObjAddr: 0x20AB0, symBinAddr: 0x28AB0, symSize: 0x80 }
  - { offset: 0x11AE21, size: 0x8, addend: 0x0, symName: __ZNSt3__17__stateIcED1Ev, symObjAddr: 0x209D8, symBinAddr: 0x289D8, symSize: 0x40 }
  - { offset: 0x11B354, size: 0x8, addend: 0x0, symName: __ZNKSt3__16vectorINS_9sub_matchIPKcEENS_9allocatorIS4_EEE20__throw_length_errorB8ne180100Ev, symObjAddr: 0x209C4, symBinAddr: 0x289C4, symSize: 0x14 }
  - { offset: 0x11B37E, size: 0x8, addend: 0x0, symName: __ZNSt3__17__stateIcED1Ev, symObjAddr: 0x209D8, symBinAddr: 0x289D8, symSize: 0x40 }
  - { offset: 0x11B595, size: 0x8, addend: 0x0, symName: __ZNKSt3__16vectorINS_7__stateIcEENS_9allocatorIS2_EEE20__throw_length_errorB8ne180100Ev, symObjAddr: 0x20D14, symBinAddr: 0x28D14, symSize: 0x14 }
  - { offset: 0x11B5BF, size: 0x8, addend: 0x0, symName: __ZNSt3__16vectorINS_9sub_matchIPKcEENS_9allocatorIS4_EEE8__appendEmRKS4_, symObjAddr: 0x20D28, symBinAddr: 0x28D28, symSize: 0x1A0 }
  - { offset: 0x11BC0F, size: 0x8, addend: 0x0, symName: __ZNKSt3__16vectorINS_4pairImPKcEENS_9allocatorIS4_EEE20__throw_length_errorB8ne180100Ev, symObjAddr: 0x20FF0, symBinAddr: 0x28FF0, symSize: 0x14 }
  - { offset: 0x11BC39, size: 0x8, addend: 0x0, symName: __ZNSt3__17__stateIcEC2ERKS1_, symObjAddr: 0x21004, symBinAddr: 0x29004, symSize: 0x178 }
  - { offset: 0x11C076, size: 0x8, addend: 0x0, symName: __ZNSt3__111basic_regexIcNS_12regex_traitsIcEEE11__push_charEc, symObjAddr: 0x21BE4, symBinAddr: 0x29BE4, symSize: 0x144 }
  - { offset: 0x11C456, size: 0x8, addend: 0x0, symName: __ZNSt3__111basic_regexIcNS_12regex_traitsIcEEE15__push_back_refEi, symObjAddr: 0x21D74, symBinAddr: 0x29D74, symSize: 0xCC }
  - { offset: 0x11C62F, size: 0x8, addend: 0x0, symName: __ZNSt3__111basic_regexIcNS_12regex_traitsIcEEE30__parse_character_class_escapeINS_11__wrap_iterIPKcEEEET_S9_S9_, symObjAddr: 0x215C0, symBinAddr: 0x295C0, symSize: 0x248 }
  - { offset: 0x11CAFB, size: 0x8, addend: 0x0, symName: __ZNSt3__111basic_regexIcNS_12regex_traitsIcEEE24__parse_character_escapeINS_11__wrap_iterIPKcEEEET_S9_S9_PNS_12basic_stringIcNS_11char_traitsIcEENS_9allocatorIcEEEE, symObjAddr: 0x21808, symBinAddr: 0x29808, symSize: 0x3DC }
  - { offset: 0x11CFDB, size: 0x8, addend: 0x0, symName: __ZNSt3__111basic_regexIcNS_12regex_traitsIcEEE11__push_charEc, symObjAddr: 0x21BE4, symBinAddr: 0x29BE4, symSize: 0x144 }
  - { offset: 0x11D0CB, size: 0x8, addend: 0x0, symName: __ZNSt3__120__bracket_expressionIcNS_12regex_traitsIcEEEC2B8ne180100ERKS2_PNS_6__nodeIcEEbbb, symObjAddr: 0x229F0, symBinAddr: 0x2A9F0, symSize: 0x1B0 }
  - { offset: 0x11D85B, size: 0x8, addend: 0x0, symName: __ZNSt3__120__bracket_expressionIcNS_12regex_traitsIcEEE10__add_charB8ne180100Ec, symObjAddr: 0x22578, symBinAddr: 0x2A578, symSize: 0x478 }
  - { offset: 0x11E09E, size: 0x8, addend: 0x0, symName: __ZNSt3__120__bracket_expressionIcNS_12regex_traitsIcEEEC2B8ne180100ERKS2_PNS_6__nodeIcEEbbb, symObjAddr: 0x229F0, symBinAddr: 0x2A9F0, symSize: 0x1B0 }
  - { offset: 0x11E0B1, size: 0x8, addend: 0x0, symName: __ZNSt3__111basic_regexIcNS_12regex_traitsIcEEE23__parse_expression_termINS_11__wrap_iterIPKcEEEET_S9_S9_PNS_20__bracket_expressionIcS2_EE, symObjAddr: 0x23D54, symBinAddr: 0x2BD54, symSize: 0x448 }
  - { offset: 0x11F0B0, size: 0x8, addend: 0x0, symName: __ZNSt3__123__match_any_but_newlineIcED1Ev, symObjAddr: 0x214EC, symBinAddr: 0x294EC, symSize: 0x44 }
  - { offset: 0x11F13A, size: 0x8, addend: 0x0, symName: __ZNSt3__123__match_any_but_newlineIcED0Ev, symObjAddr: 0x21530, symBinAddr: 0x29530, symSize: 0x44 }
  - { offset: 0x11F5F6, size: 0x8, addend: 0x0, symName: __ZNSt3__118__match_char_icaseIcNS_12regex_traitsIcEEED1Ev, symObjAddr: 0x21E40, symBinAddr: 0x29E40, symSize: 0x58 }
  - { offset: 0x11F6BE, size: 0x8, addend: 0x0, symName: __ZNSt3__118__match_char_icaseIcNS_12regex_traitsIcEEED0Ev, symObjAddr: 0x21E98, symBinAddr: 0x29E98, symSize: 0x58 }
  - { offset: 0x11F793, size: 0x8, addend: 0x0, symName: __ZNKSt3__118__match_char_icaseIcNS_12regex_traitsIcEEE6__execERNS_7__stateIcEE, symObjAddr: 0x21EF0, symBinAddr: 0x29EF0, symSize: 0x84 }
  - { offset: 0x11F855, size: 0x8, addend: 0x0, symName: __ZNSt3__120__match_char_collateIcNS_12regex_traitsIcEEED1Ev, symObjAddr: 0x21F74, symBinAddr: 0x29F74, symSize: 0x58 }
  - { offset: 0x11F91D, size: 0x8, addend: 0x0, symName: __ZNSt3__120__match_char_collateIcNS_12regex_traitsIcEEED0Ev, symObjAddr: 0x21FCC, symBinAddr: 0x29FCC, symSize: 0x58 }
  - { offset: 0x11F9F2, size: 0x8, addend: 0x0, symName: __ZNKSt3__120__match_char_collateIcNS_12regex_traitsIcEEE6__execERNS_7__stateIcEE, symObjAddr: 0x22024, symBinAddr: 0x2A024, symSize: 0x48 }
  - { offset: 0x11FA64, size: 0x8, addend: 0x0, symName: __ZNSt3__112__match_charIcED1Ev, symObjAddr: 0x2206C, symBinAddr: 0x2A06C, symSize: 0x44 }
  - { offset: 0x11FAEE, size: 0x8, addend: 0x0, symName: __ZNSt3__112__match_charIcED0Ev, symObjAddr: 0x220B0, symBinAddr: 0x2A0B0, symSize: 0x44 }
  - { offset: 0x11FB85, size: 0x8, addend: 0x0, symName: __ZNKSt3__112__match_charIcE6__execERNS_7__stateIcEE, symObjAddr: 0x220F4, symBinAddr: 0x2A0F4, symSize: 0x48 }
  - { offset: 0x11FBF7, size: 0x8, addend: 0x0, symName: __ZNSt3__116__back_ref_icaseIcNS_12regex_traitsIcEEED1Ev, symObjAddr: 0x2213C, symBinAddr: 0x2A13C, symSize: 0x58 }
  - { offset: 0x11FCBF, size: 0x8, addend: 0x0, symName: __ZNSt3__116__back_ref_icaseIcNS_12regex_traitsIcEEED0Ev, symObjAddr: 0x22194, symBinAddr: 0x2A194, symSize: 0x58 }
  - { offset: 0x11FD94, size: 0x8, addend: 0x0, symName: __ZNKSt3__116__back_ref_icaseIcNS_12regex_traitsIcEEE6__execERNS_7__stateIcEE, symObjAddr: 0x221EC, symBinAddr: 0x2A1EC, symSize: 0xF8 }
  - { offset: 0x11FF0E, size: 0x8, addend: 0x0, symName: __ZNSt3__118__back_ref_collateIcNS_12regex_traitsIcEEED1Ev, symObjAddr: 0x222E4, symBinAddr: 0x2A2E4, symSize: 0x58 }
  - { offset: 0x11FFD6, size: 0x8, addend: 0x0, symName: __ZNSt3__118__back_ref_collateIcNS_12regex_traitsIcEEED0Ev, symObjAddr: 0x2233C, symBinAddr: 0x2A33C, symSize: 0x58 }
  - { offset: 0x1200AB, size: 0x8, addend: 0x0, symName: __ZNKSt3__118__back_ref_collateIcNS_12regex_traitsIcEEE6__execERNS_7__stateIcEE, symObjAddr: 0x22394, symBinAddr: 0x2A394, symSize: 0x90 }
  - { offset: 0x120189, size: 0x8, addend: 0x0, symName: __ZNSt3__110__back_refIcED1Ev, symObjAddr: 0x22424, symBinAddr: 0x2A424, symSize: 0x44 }
  - { offset: 0x120213, size: 0x8, addend: 0x0, symName: __ZNSt3__110__back_refIcED0Ev, symObjAddr: 0x22468, symBinAddr: 0x2A468, symSize: 0x44 }
  - { offset: 0x1202B0, size: 0x8, addend: 0x0, symName: __ZNKSt3__110__back_refIcE6__execERNS_7__stateIcEE, symObjAddr: 0x224AC, symBinAddr: 0x2A4AC, symSize: 0xCC }
  - { offset: 0x120445, size: 0x8, addend: 0x0, symName: __ZNSt3__120__bracket_expressionIcNS_12regex_traitsIcEEE10__add_charB8ne180100Ec, symObjAddr: 0x22578, symBinAddr: 0x2A578, symSize: 0x478 }
  - { offset: 0x120757, size: 0x8, addend: 0x0, symName: __ZNSt3__16vectorINS_4pairINS_12basic_stringIcNS_11char_traitsIcEENS_9allocatorIcEEEES7_EENS5_IS8_EEED1B8ne180100Ev, symObjAddr: 0x22BA0, symBinAddr: 0x2ABA0, symSize: 0x8C }
  - { offset: 0x120CA8, size: 0x8, addend: 0x0, symName: __ZNSt3__120__bracket_expressionIcNS_12regex_traitsIcEEED1Ev, symObjAddr: 0x22C2C, symBinAddr: 0x2AC2C, symSize: 0x4 }
  - { offset: 0x120CCC, size: 0x8, addend: 0x0, symName: __ZNSt3__120__bracket_expressionIcNS_12regex_traitsIcEEED1Ev, symObjAddr: 0x22C2C, symBinAddr: 0x2AC2C, symSize: 0x4 }
  - { offset: 0x120CE0, size: 0x8, addend: 0x0, symName: __ZNSt3__120__bracket_expressionIcNS_12regex_traitsIcEEED2Ev, symObjAddr: 0x236CC, symBinAddr: 0x2B6CC, symSize: 0x140 }
  - { offset: 0x1217DE, size: 0x8, addend: 0x0, symName: __ZNSt3__120__bracket_expressionIcNS_12regex_traitsIcEEED0Ev, symObjAddr: 0x22C30, symBinAddr: 0x2AC30, symSize: 0x14 }
  - { offset: 0x121C3D, size: 0x8, addend: 0x0, symName: __ZNKSt3__120__bracket_expressionIcNS_12regex_traitsIcEEE6__execERNS_7__stateIcEE, symObjAddr: 0x22C44, symBinAddr: 0x2AC44, symSize: 0xA30 }
  - { offset: 0x1238F4, size: 0x8, addend: 0x0, symName: __ZNKSt3__112regex_traitsIcE20__lookup_collatenameIPcEENS_12basic_stringIcNS_11char_traitsIcEENS_9allocatorIcEEEET_SA_c, symObjAddr: 0x23938, symBinAddr: 0x2B938, symSize: 0x23C }
  - { offset: 0x124559, size: 0x8, addend: 0x0, symName: __ZNKSt3__112regex_traitsIcE9transformIPcEENS_12basic_stringIcNS_11char_traitsIcEENS_9allocatorIcEEEET_SA_, symObjAddr: 0x2380C, symBinAddr: 0x2B80C, symSize: 0x12C }
  - { offset: 0x124B7B, size: 0x8, addend: 0x0, symName: __ZNKSt3__112regex_traitsIcE19__transform_primaryIPcEENS_12basic_stringIcNS_11char_traitsIcEENS_9allocatorIcEEEET_SA_c, symObjAddr: 0x23B74, symBinAddr: 0x2BB74, symSize: 0x194 }
  - { offset: 0x125327, size: 0x8, addend: 0x0, symName: __ZNSt3__14pairINS_12basic_stringIcNS_11char_traitsIcEENS_9allocatorIcEEEES6_ED1Ev, symObjAddr: 0x23674, symBinAddr: 0x2B674, symSize: 0x58 }
  - { offset: 0x1255F9, size: 0x8, addend: 0x0, symName: __ZNSt3__111basic_regexIcNS_12regex_traitsIcEEE25__parse_equivalence_classINS_11__wrap_iterIPKcEEEET_S9_S9_PNS_20__bracket_expressionIcS2_EE, symObjAddr: 0x2419C, symBinAddr: 0x2C19C, symSize: 0x288 }
  - { offset: 0x126225, size: 0x8, addend: 0x0, symName: __ZNSt3__111basic_regexIcNS_12regex_traitsIcEEE18__parse_awk_escapeINS_11__wrap_iterIPKcEEEET_S9_S9_PNS_12basic_stringIcNS_11char_traitsIcEENS_9allocatorIcEEEE, symObjAddr: 0x24730, symBinAddr: 0x2C730, symSize: 0x2EC }
  - { offset: 0x12641A, size: 0x8, addend: 0x0, symName: __ZNSt3__120__bracket_expressionIcNS_12regex_traitsIcEEE11__add_rangeB8ne180100ENS_12basic_stringIcNS_11char_traitsIcEENS_9allocatorIcEEEES9_, symObjAddr: 0x24A1C, symBinAddr: 0x2CA1C, symSize: 0x52C }
  - { offset: 0x12642E, size: 0x8, addend: 0x0, symName: __ZNSt3__111basic_regexIcNS_12regex_traitsIcEEE24__parse_collating_symbolINS_11__wrap_iterIPKcEEEET_S9_S9_RNS_12basic_stringIcNS_11char_traitsIcEENS_9allocatorIcEEEE, symObjAddr: 0x244E0, symBinAddr: 0x2C4E0, symSize: 0xF0 }
  - { offset: 0x126898, size: 0x8, addend: 0x0, symName: __ZNSt3__111basic_regexIcNS_12regex_traitsIcEEE20__parse_class_escapeINS_11__wrap_iterIPKcEEEET_S9_S9_RNS_12basic_stringIcNS_11char_traitsIcEENS_9allocatorIcEEEEPNS_20__bracket_expressionIcS2_EE, symObjAddr: 0x245D0, symBinAddr: 0x2C5D0, symSize: 0x160 }
  - { offset: 0x1268AC, size: 0x8, addend: 0x0, symName: __ZNSt3__111basic_regexIcNS_12regex_traitsIcEEE23__parse_character_classINS_11__wrap_iterIPKcEEEET_S9_S9_PNS_20__bracket_expressionIcS2_EE, symObjAddr: 0x24424, symBinAddr: 0x2C424, symSize: 0xBC }
  - { offset: 0x126BEE, size: 0x8, addend: 0x0, symName: __ZNSt3__111basic_regexIcNS_12regex_traitsIcEEE24__parse_collating_symbolINS_11__wrap_iterIPKcEEEET_S9_S9_RNS_12basic_stringIcNS_11char_traitsIcEENS_9allocatorIcEEEE, symObjAddr: 0x244E0, symBinAddr: 0x2C4E0, symSize: 0xF0 }
  - { offset: 0x126C0E, size: 0x8, addend: 0x0, symName: __ZNSt3__120__bracket_expressionIcNS_12regex_traitsIcEEE13__add_digraphB8ne180100Ecc, symObjAddr: 0x24F48, symBinAddr: 0x2CF48, symSize: 0x3C8 }
  - { offset: 0x1276CF, size: 0x8, addend: 0x0, symName: __ZNSt3__119__throw_regex_errorB8ne180100ILNS_15regex_constants10error_typeE1EEEvv, symObjAddr: 0x25310, symBinAddr: 0x2D310, symSize: 0x4C }
  - { offset: 0x1276DA, size: 0x8, addend: 0x0, symName: __ZNSt3__111basic_regexIcNS_12regex_traitsIcEEE20__parse_class_escapeINS_11__wrap_iterIPKcEEEET_S9_S9_RNS_12basic_stringIcNS_11char_traitsIcEENS_9allocatorIcEEEEPNS_20__bracket_expressionIcS2_EE, symObjAddr: 0x245D0, symBinAddr: 0x2C5D0, symSize: 0x160 }
  - { offset: 0x1278C8, size: 0x8, addend: 0x0, symName: __ZNSt3__111basic_regexIcNS_12regex_traitsIcEEE18__parse_awk_escapeINS_11__wrap_iterIPKcEEEET_S9_S9_PNS_12basic_stringIcNS_11char_traitsIcEENS_9allocatorIcEEEE, symObjAddr: 0x24730, symBinAddr: 0x2C730, symSize: 0x2EC }
  - { offset: 0x1278DC, size: 0x8, addend: 0x0, symName: __ZNSt3__120__bracket_expressionIcNS_12regex_traitsIcEEE11__add_rangeB8ne180100ENS_12basic_stringIcNS_11char_traitsIcEENS_9allocatorIcEEEES9_, symObjAddr: 0x24A1C, symBinAddr: 0x2CA1C, symSize: 0x52C }
  - { offset: 0x1292BB, size: 0x8, addend: 0x0, symName: __ZNKSt3__112regex_traitsIcE20__lookup_collatenameINS_11__wrap_iterIPKcEEEENS_12basic_stringIcNS_11char_traitsIcEENS_9allocatorIcEEEET_SD_c, symObjAddr: 0x2535C, symBinAddr: 0x2D35C, symSize: 0x29C }
  - { offset: 0x129F28, size: 0x8, addend: 0x0, symName: __ZNKSt3__112regex_traitsIcE19__transform_primaryINS_11__wrap_iterIPcEEEENS_12basic_stringIcNS_11char_traitsIcEENS_9allocatorIcEEEET_SC_c, symObjAddr: 0x255F8, symBinAddr: 0x2D5F8, symSize: 0x1F4 }
  - { offset: 0x12A6F6, size: 0x8, addend: 0x0, symName: __ZNSt3__16vectorINS_12basic_stringIcNS_11char_traitsIcEENS_9allocatorIcEEEENS4_IS6_EEE21__push_back_slow_pathIRKS6_EEPS6_OT_, symObjAddr: 0x257EC, symBinAddr: 0x2D7EC, symSize: 0x1D4 }
  - { offset: 0x12AE9C, size: 0x8, addend: 0x0, symName: __ZNKSt3__112regex_traitsIcE18__lookup_classnameINS_11__wrap_iterIPKcEEEEjT_S7_bc, symObjAddr: 0x25A84, symBinAddr: 0x2DA84, symSize: 0x194 }
  - { offset: 0x12B5DD, size: 0x8, addend: 0x0, symName: __ZNSt3__120__bracket_expressionIcNS_12regex_traitsIcEEE14__add_neg_charB8ne180100Ec, symObjAddr: 0x25C18, symBinAddr: 0x2DC18, symSize: 0x478 }
  - { offset: 0x12BE20, size: 0x8, addend: 0x0, symName: __ZNKSt3__112regex_traitsIcE9transformINS_11__wrap_iterIPcEEEENS_12basic_stringIcNS_11char_traitsIcEENS_9allocatorIcEEEET_SC_, symObjAddr: 0x26090, symBinAddr: 0x2E090, symSize: 0x190 }
  - { offset: 0x12C039, size: 0x8, addend: 0x0, symName: __ZNKSt3__112regex_traitsIcE9transformINS_11__wrap_iterIPcEEEENS_12basic_stringIcNS_11char_traitsIcEENS_9allocatorIcEEEET_SC_, symObjAddr: 0x26090, symBinAddr: 0x2E090, symSize: 0x190 }
  - { offset: 0x12C691, size: 0x8, addend: 0x0, symName: __ZNSt3__16vectorINS_4pairINS_12basic_stringIcNS_11char_traitsIcEENS_9allocatorIcEEEES7_EENS5_IS8_EEE21__push_back_slow_pathIS8_EEPS8_OT_, symObjAddr: 0x2626C, symBinAddr: 0x2E26C, symSize: 0x1B0 }
  - { offset: 0x12CEF5, size: 0x8, addend: 0x0, symName: __ZNKSt3__16vectorINS_4pairINS_12basic_stringIcNS_11char_traitsIcEENS_9allocatorIcEEEES7_EENS5_IS8_EEE20__throw_length_errorB8ne180100Ev, symObjAddr: 0x2641C, symBinAddr: 0x2E41C, symSize: 0x14 }
  - { offset: 0x12D1DA, size: 0x8, addend: 0x0, symName: __ZNKSt3__16vectorINS_4pairIccEENS_9allocatorIS2_EEE20__throw_length_errorB8ne180100Ev, symObjAddr: 0x26430, symBinAddr: 0x2E430, symSize: 0x14 }
  - { offset: 0x12D204, size: 0x8, addend: 0x0, symName: __ZNSt3__128__begin_marked_subexpressionIcED1Ev, symObjAddr: 0x26444, symBinAddr: 0x2E444, symSize: 0x44 }
  - { offset: 0x12D407, size: 0x8, addend: 0x0, symName: __ZNSt3__114__split_bufferINS_12basic_stringIcNS_11char_traitsIcEENS_9allocatorIcEEEERNS4_IS6_EEED1Ev, symObjAddr: 0x259C0, symBinAddr: 0x2D9C0, symSize: 0x64 }
  - { offset: 0x12D8D5, size: 0x8, addend: 0x0, symName: __ZNKSt3__16vectorINS_4pairINS_12basic_stringIcNS_11char_traitsIcEENS_9allocatorIcEEEES7_EENS5_IS8_EEE20__throw_length_errorB8ne180100Ev, symObjAddr: 0x2641C, symBinAddr: 0x2E41C, symSize: 0x14 }
  - { offset: 0x12D8FF, size: 0x8, addend: 0x0, symName: __ZNKSt3__16vectorINS_4pairIccEENS_9allocatorIS2_EEE20__throw_length_errorB8ne180100Ev, symObjAddr: 0x26430, symBinAddr: 0x2E430, symSize: 0x14 }
  - { offset: 0x12D927, size: 0x8, addend: 0x0, symName: __ZNSt3__128__begin_marked_subexpressionIcED1Ev, symObjAddr: 0x26444, symBinAddr: 0x2E444, symSize: 0x44 }
  - { offset: 0x12D9B1, size: 0x8, addend: 0x0, symName: __ZNSt3__128__begin_marked_subexpressionIcED0Ev, symObjAddr: 0x26488, symBinAddr: 0x2E488, symSize: 0x44 }
  - { offset: 0x12DA48, size: 0x8, addend: 0x0, symName: __ZNKSt3__128__begin_marked_subexpressionIcE6__execERNS_7__stateIcEE, symObjAddr: 0x264CC, symBinAddr: 0x2E4CC, symSize: 0x30 }
  - { offset: 0x12DADB, size: 0x8, addend: 0x0, symName: __ZNSt3__126__end_marked_subexpressionIcED1Ev, symObjAddr: 0x264FC, symBinAddr: 0x2E4FC, symSize: 0x44 }
  - { offset: 0x12DB65, size: 0x8, addend: 0x0, symName: __ZNSt3__126__end_marked_subexpressionIcED0Ev, symObjAddr: 0x26540, symBinAddr: 0x2E540, symSize: 0x44 }
  - { offset: 0x12DBFC, size: 0x8, addend: 0x0, symName: __ZNKSt3__126__end_marked_subexpressionIcE6__execERNS_7__stateIcEE, symObjAddr: 0x26584, symBinAddr: 0x2E584, symSize: 0x38 }
  - { offset: 0x12DF29, size: 0x8, addend: 0x0, symName: __ZNSt3__16__loopIcED0Ev, symObjAddr: 0x267F4, symBinAddr: 0x2E7F4, symSize: 0x68 }
  - { offset: 0x12E024, size: 0x8, addend: 0x0, symName: __ZNSt3__16__loopIcED1Ev, symObjAddr: 0x2678C, symBinAddr: 0x2E78C, symSize: 0x68 }
  - { offset: 0x12E151, size: 0x8, addend: 0x0, symName: __ZNKSt3__16__loopIcE6__execERNS_7__stateIcEE, symObjAddr: 0x2685C, symBinAddr: 0x2E85C, symSize: 0x1E4 }
  - { offset: 0x12E29B, size: 0x8, addend: 0x0, symName: __ZNKSt3__16__loopIcE12__exec_splitEbRNS_7__stateIcEE, symObjAddr: 0x26A40, symBinAddr: 0x2EA40, symSize: 0xC8 }
  - { offset: 0x12E379, size: 0x8, addend: 0x0, symName: __ZNSt3__117__owns_two_statesIcED1Ev, symObjAddr: 0x26B08, symBinAddr: 0x2EB08, symSize: 0x68 }
  - { offset: 0x12E40E, size: 0x8, addend: 0x0, symName: __ZNSt3__117__owns_two_statesIcED0Ev, symObjAddr: 0x26B70, symBinAddr: 0x2EB70, symSize: 0x68 }
  - { offset: 0x12E4B0, size: 0x8, addend: 0x0, symName: __ZNSt3__117__repeat_one_loopIcED1Ev, symObjAddr: 0x26BD8, symBinAddr: 0x2EBD8, symSize: 0x4 }
  - { offset: 0x12E4DC, size: 0x8, addend: 0x0, symName: __ZNSt3__117__repeat_one_loopIcED0Ev, symObjAddr: 0x26BDC, symBinAddr: 0x2EBDC, symSize: 0x4 }
  - { offset: 0x12E508, size: 0x8, addend: 0x0, symName: __ZNKSt3__117__repeat_one_loopIcE6__execERNS_7__stateIcEE, symObjAddr: 0x26BE0, symBinAddr: 0x2EBE0, symSize: 0x14 }
  - { offset: 0x12E57A, size: 0x8, addend: 0x0, symName: __ZNSt3__111__alternateIcED1Ev, symObjAddr: 0x26BF4, symBinAddr: 0x2EBF4, symSize: 0x68 }
  - { offset: 0x12E62F, size: 0x8, addend: 0x0, symName: __ZNSt3__111__alternateIcED0Ev, symObjAddr: 0x26C5C, symBinAddr: 0x2EC5C, symSize: 0x68 }
  - { offset: 0x12E6F1, size: 0x8, addend: 0x0, symName: __ZNKSt3__111__alternateIcE6__execERNS_7__stateIcEE, symObjAddr: 0x26CC4, symBinAddr: 0x2ECC4, symSize: 0xC }
  - { offset: 0x12E727, size: 0x8, addend: 0x0, symName: __ZNKSt3__111__alternateIcE12__exec_splitEbRNS_7__stateIcEE, symObjAddr: 0x26CD0, symBinAddr: 0x2ECD0, symSize: 0x24 }
  - { offset: 0x12E771, size: 0x8, addend: 0x0, symName: __ZNSt3__121__empty_non_own_stateIcED1Ev, symObjAddr: 0x26CF4, symBinAddr: 0x2ECF4, symSize: 0x4 }
  - { offset: 0x12E79D, size: 0x8, addend: 0x0, symName: __ZNSt3__121__empty_non_own_stateIcED0Ev, symObjAddr: 0x26CF8, symBinAddr: 0x2ECF8, symSize: 0x4 }
  - { offset: 0x12E7C9, size: 0x8, addend: 0x0, symName: __ZNKSt3__121__empty_non_own_stateIcE6__execERNS_7__stateIcEE, symObjAddr: 0x26CFC, symBinAddr: 0x2ECFC, symSize: 0x14 }
  - { offset: 0x12E92A, size: 0x8, addend: 0x0, symName: __ZNSt3__111basic_regexIcNS_12regex_traitsIcEEE32__parse_one_char_or_coll_elem_REINS_11__wrap_iterIPKcEEEET_S9_S9_, symObjAddr: 0x27210, symBinAddr: 0x2F210, symSize: 0x15C }
  - { offset: 0x12ECDA, size: 0x8, addend: 0x0, symName: __ZNSt3__111__match_anyIcED1Ev, symObjAddr: 0x2736C, symBinAddr: 0x2F36C, symSize: 0x44 }
  - { offset: 0x12ED64, size: 0x8, addend: 0x0, symName: __ZNSt3__111__match_anyIcED0Ev, symObjAddr: 0x273B0, symBinAddr: 0x2F3B0, symSize: 0x44 }
  - { offset: 0x12EDFB, size: 0x8, addend: 0x0, symName: __ZNKSt3__111__match_anyIcE6__execERNS_7__stateIcEE, symObjAddr: 0x273F4, symBinAddr: 0x2F3F4, symSize: 0x40 }
  - { offset: 0x12EE50, size: 0x8, addend: 0x0, symName: __ZNSt3__111basic_regexIcNS_12regex_traitsIcEEE15__test_back_refEc, symObjAddr: 0x27434, symBinAddr: 0x2F434, symSize: 0x60 }
  - { offset: 0x12EF27, size: 0x8, addend: 0x0, symName: __ZNSt3__111basic_regexIcNS_12regex_traitsIcEEE22__parse_ERE_expressionINS_11__wrap_iterIPKcEEEET_S9_S9_, symObjAddr: 0x27494, symBinAddr: 0x2F494, symSize: 0x288 }
  - { offset: 0x12EF78, size: 0x8, addend: 0x0, symName: __ZNSt3__111basic_regexIcNS_12regex_traitsIcEEE20__parse_ORD_CHAR_EREINS_11__wrap_iterIPKcEEEET_S9_S9_, symObjAddr: 0x2771C, symBinAddr: 0x2F71C, symSize: 0x78 }
  - { offset: 0x12EFEE, size: 0x8, addend: 0x0, symName: __ZNSt3__111basic_regexIcNS_12regex_traitsIcEEE23__parse_QUOTED_CHAR_EREINS_11__wrap_iterIPKcEEEET_S9_S9_, symObjAddr: 0x27794, symBinAddr: 0x2F794, symSize: 0xC4 }
  - { offset: 0x12F1E7, size: 0x8, addend: 0x0, symName: __ZNKSt3__111basic_regexIcNS_12regex_traitsIcEEE27__match_at_start_posix_subsINS_9allocatorINS_9sub_matchIPKcEEEEEEbS8_S8_RNS_13match_resultsIS8_T_EENS_15regex_constants15match_flag_typeEb, symObjAddr: 0x2862C, symBinAddr: 0x3062C, symSize: 0x5E4 }
  - { offset: 0x131220, size: 0x8, addend: 0x0, symName: __ZNKSt3__111basic_regexIcNS_12regex_traitsIcEEE29__match_at_start_posix_nosubsINS_9allocatorINS_9sub_matchIPKcEEEEEEbS8_S8_RNS_13match_resultsIS8_T_EENS_15regex_constants15match_flag_typeEb, symObjAddr: 0x27D20, symBinAddr: 0x2FD20, symSize: 0x90C }
  - { offset: 0x133487, size: 0x8, addend: 0x0, symName: __ZNSt3__16vectorINS_9sub_matchINS_11__wrap_iterIPKcEEEENS_9allocatorIS6_EEE8__appendEm, symObjAddr: 0x2A0E0, symBinAddr: 0x320E0, symSize: 0x194 }
  - { offset: 0x133A7C, size: 0x8, addend: 0x0, symName: __ZNKSt3__16vectorINS_9sub_matchINS_11__wrap_iterIPKcEEEENS_9allocatorIS6_EEE20__throw_length_errorB8ne180100Ev, symObjAddr: 0x2A274, symBinAddr: 0x32274, symSize: 0x14 }
  - { offset: 0x133F00, size: 0x8, addend: 0x0, symName: __ZNSt3__15dequeINS_7__stateIcEENS_9allocatorIS2_EEE19__add_back_capacityEv, symObjAddr: 0x28DD8, symBinAddr: 0x30DD8, symSize: 0x5BC }
  - { offset: 0x135282, size: 0x8, addend: 0x0, symName: __ZNSt3__15dequeINS_7__stateIcEENS_9allocatorIS2_EEE20__add_front_capacityEv, symObjAddr: 0x296B8, symBinAddr: 0x316B8, symSize: 0x3B8 }
  - { offset: 0x136119, size: 0x8, addend: 0x0, symName: __ZNSt3__15dequeINS_7__stateIcEENS_9allocatorIS2_EEED1B8ne180100Ev, symObjAddr: 0x28D64, symBinAddr: 0x30D64, symSize: 0x74 }
  - { offset: 0x136500, size: 0x8, addend: 0x0, symName: __ZNSt3__16vectorINS_9sub_matchIPKcEENS_9allocatorIS4_EEE18__assign_with_sizeB8ne180100IPS4_S9_EEvT_T0_l, symObjAddr: 0x29C08, symBinAddr: 0x31C08, symSize: 0x1FC }
  - { offset: 0x136E30, size: 0x8, addend: 0x0, symName: __ZNSt3__16vectorINS_4pairImPKcEENS_9allocatorIS4_EEE18__assign_with_sizeB8ne180100IPS4_S9_EEvT_T0_l, symObjAddr: 0x29E04, symBinAddr: 0x31E04, symSize: 0x2DC }
  - { offset: 0x136E55, size: 0x8, addend: 0x0, symName: __ZNSt3__16vectorINS_4pairImPKcEENS_9allocatorIS4_EEE18__assign_with_sizeB8ne180100IPS4_S9_EEvT_T0_l, symObjAddr: 0x29E04, symBinAddr: 0x31E04, symSize: 0x2DC }
  - { offset: 0x1376D6, size: 0x8, addend: 0x0, symName: __ZNSt3__16vectorINS_9sub_matchINS_11__wrap_iterIPKcEEEENS_9allocatorIS6_EEE8__appendEm, symObjAddr: 0x2A0E0, symBinAddr: 0x320E0, symSize: 0x194 }
  - { offset: 0x137711, size: 0x8, addend: 0x0, symName: __ZNSt3__15dequeINS_7__stateIcEENS_9allocatorIS2_EEE5clearEv, symObjAddr: 0x28C10, symBinAddr: 0x30C10, symSize: 0x154 }
  - { offset: 0x138206, size: 0x8, addend: 0x0, symName: __ZNSt3__114__split_bufferIPNS_7__stateIcEENS_9allocatorIS3_EEE9push_backEOS3_, symObjAddr: 0x29394, symBinAddr: 0x31394, symSize: 0x18C }
  - { offset: 0x1386F8, size: 0x8, addend: 0x0, symName: __ZNSt3__114__split_bufferIPNS_7__stateIcEENS_9allocatorIS3_EEE10push_frontEOS3_, symObjAddr: 0x29520, symBinAddr: 0x31520, symSize: 0x198 }
  - { offset: 0x138703, size: 0x8, addend: 0x0, symName: __ZNSt3__114__split_bufferIPNS_7__stateIcEENS_9allocatorIS3_EEE10push_frontEOS3_, symObjAddr: 0x29520, symBinAddr: 0x31520, symSize: 0x198 }
  - { offset: 0x138BCB, size: 0x8, addend: 0x0, symName: __ZNSt3__15dequeINS_7__stateIcEENS_9allocatorIS2_EEE20__add_front_capacityEv, symObjAddr: 0x296B8, symBinAddr: 0x316B8, symSize: 0x3B8 }
  - { offset: 0x138C3C, size: 0x8, addend: 0x0, symName: __ZNSt3__114__split_bufferIPNS_7__stateIcEENS_9allocatorIS3_EEE10push_frontERKS3_, symObjAddr: 0x29A70, symBinAddr: 0x31A70, symSize: 0x198 }
  - { offset: 0x139104, size: 0x8, addend: 0x0, symName: __ZNSt3__16vectorINS_9sub_matchIPKcEENS_9allocatorIS4_EEE18__assign_with_sizeB8ne180100IPS4_S9_EEvT_T0_l, symObjAddr: 0x29C08, symBinAddr: 0x31C08, symSize: 0x1FC }
  - { offset: 0x1395FC, size: 0x8, addend: 0x0, symName: __ZNKSt3__16vectorINS_9sub_matchINS_11__wrap_iterIPKcEEEENS_9allocatorIS6_EEE20__throw_length_errorB8ne180100Ev, symObjAddr: 0x2A274, symBinAddr: 0x32274, symSize: 0x14 }
  - { offset: 0x139626, size: 0x8, addend: 0x0, symName: __ZL29whisper_grammar_advance_stackRKNSt3__16vectorINS0_I23whisper_grammar_elementNS_9allocatorIS1_EEEENS2_IS4_EEEERKNS0_IPKS1_NS2_ISA_EEEERNS0_ISC_NS2_ISC_EEEE, symObjAddr: 0x2A288, symBinAddr: 0x32288, symSize: 0x504 }
  - { offset: 0x139939, size: 0x8, addend: 0x0, symName: __ZNSt3__16vectorINS0_IPK23whisper_grammar_elementNS_9allocatorIS3_EEEENS4_IS6_EEE21__push_back_slow_pathIRKS6_EEPS6_OT_, symObjAddr: 0x2A83C, symBinAddr: 0x3283C, symSize: 0x20C }
  - { offset: 0x13A486, size: 0x8, addend: 0x0, symName: __ZL29whisper_grammar_advance_stackRKNSt3__16vectorINS0_I23whisper_grammar_elementNS_9allocatorIS1_EEEENS2_IS4_EEEERKNS0_IPKS1_NS2_ISA_EEEERNS0_ISC_NS2_ISC_EEEE.cold.1, symObjAddr: 0x37AF0, symBinAddr: 0xF7228, symSize: 0x38 }
  - { offset: 0x13A7C9, size: 0x8, addend: 0x0, symName: __ZNSt3__114__split_bufferINS_6vectorIPK23whisper_grammar_elementNS_9allocatorIS4_EEEERNS5_IS7_EEED1Ev, symObjAddr: 0x2AA48, symBinAddr: 0x32A48, symSize: 0x6C }
  - { offset: 0x13AABA, size: 0x8, addend: 0x0, symName: __ZNSt3__111basic_regexIcNS_12regex_traitsIcEEE7__parseIPKcEET_S7_S7_, symObjAddr: 0x2AB94, symBinAddr: 0x32B94, symSize: 0x364 }
  - { offset: 0x13B426, size: 0x8, addend: 0x0, symName: __ZNSt3__111basic_regexIcNS_12regex_traitsIcEEE13__parse_egrepIPKcEET_S7_S7_, symObjAddr: 0x2B534, symBinAddr: 0x33534, symSize: 0x1B8 }
  - { offset: 0x13B9D0, size: 0x8, addend: 0x0, symName: __ZNSt3__111basic_regexIcNS_12regex_traitsIcEEE24__parse_extended_reg_expIPKcEET_S7_S7_, symObjAddr: 0x2B210, symBinAddr: 0x33210, symSize: 0x16C }
  - { offset: 0x13BD36, size: 0x8, addend: 0x0, symName: __ZNSt3__111basic_regexIcNS_12regex_traitsIcEEE12__parse_grepIPKcEET_S7_S7_, symObjAddr: 0x2B37C, symBinAddr: 0x3337C, symSize: 0x1B8 }
  - { offset: 0x13BD4A, size: 0x8, addend: 0x0, symName: __ZNSt3__111basic_regexIcNS_12regex_traitsIcEEE19__parse_alternativeIPKcEET_S7_S7_, symObjAddr: 0x2B6EC, symBinAddr: 0x336EC, symSize: 0xA0 }
  - { offset: 0x13BE60, size: 0x8, addend: 0x0, symName: __ZNSt3__111basic_regexIcNS_12regex_traitsIcEEE21__parse_basic_reg_expIPKcEET_S7_S7_, symObjAddr: 0x2B098, symBinAddr: 0x33098, symSize: 0x178 }
  - { offset: 0x13C1FC, size: 0x8, addend: 0x0, symName: __ZNSt3__111basic_regexIcNS_12regex_traitsIcEEE24__parse_extended_reg_expIPKcEET_S7_S7_, symObjAddr: 0x2B210, symBinAddr: 0x33210, symSize: 0x16C }
  - { offset: 0x13C210, size: 0x8, addend: 0x0, symName: __ZNSt3__111basic_regexIcNS_12regex_traitsIcEEE12__parse_grepIPKcEET_S7_S7_, symObjAddr: 0x2B37C, symBinAddr: 0x3337C, symSize: 0x1B8 }
  - { offset: 0x13C803, size: 0x8, addend: 0x0, symName: __ZNSt3__111basic_regexIcNS_12regex_traitsIcEEE16__parse_ecma_expIPKcEET_S7_S7_, symObjAddr: 0x2AEF8, symBinAddr: 0x32EF8, symSize: 0x1A0 }
  - { offset: 0x13CC76, size: 0x8, addend: 0x0, symName: __ZNSt3__111basic_regexIcNS_12regex_traitsIcEEE12__parse_termIPKcEET_S7_S7_, symObjAddr: 0x2B78C, symBinAddr: 0x3378C, symSize: 0x94 }
  - { offset: 0x13CDDF, size: 0x8, addend: 0x0, symName: __ZNSt3__111basic_regexIcNS_12regex_traitsIcEEE18__parse_nondupl_REIPKcEET_S7_S7_, symObjAddr: 0x2DB50, symBinAddr: 0x35B50, symSize: 0x224 }
  - { offset: 0x13D364, size: 0x8, addend: 0x0, symName: __ZNSt3__111basic_regexIcNS_12regex_traitsIcEEE22__parse_RE_dupl_symbolIPKcEET_S7_S7_PNS_16__owns_one_stateIcEEjj, symObjAddr: 0x2DD74, symBinAddr: 0x35D74, symSize: 0x274 }
  - { offset: 0x13D378, size: 0x8, addend: 0x0, symName: __ZNSt3__111basic_regexIcNS_12regex_traitsIcEEE22__parse_RE_dupl_symbolIPKcEET_S7_S7_PNS_16__owns_one_stateIcEEjj, symObjAddr: 0x2DD74, symBinAddr: 0x35D74, symSize: 0x274 }
  - { offset: 0x13D935, size: 0x8, addend: 0x0, symName: __ZNSt3__111basic_regexIcNS_12regex_traitsIcEEE32__parse_one_char_or_coll_elem_REIPKcEET_S7_S7_, symObjAddr: 0x2DFE8, symBinAddr: 0x35FE8, symSize: 0x140 }
  - { offset: 0x13D98F, size: 0x8, addend: 0x0, symName: __ZNSt3__111basic_regexIcNS_12regex_traitsIcEEE22__parse_ERE_expressionIPKcEET_S7_S7_, symObjAddr: 0x2E128, symBinAddr: 0x36128, symSize: 0x284 }
  - { offset: 0x13DE7B, size: 0x8, addend: 0x0, symName: __ZNSt3__111basic_regexIcNS_12regex_traitsIcEEE20__parse_ORD_CHAR_EREIPKcEET_S7_S7_, symObjAddr: 0x2E3AC, symBinAddr: 0x363AC, symSize: 0x78 }
  - { offset: 0x13DEF2, size: 0x8, addend: 0x0, symName: __ZNSt3__111basic_regexIcNS_12regex_traitsIcEEE23__parse_ERE_dupl_symbolIPKcEET_S7_S7_PNS_16__owns_one_stateIcEEjj, symObjAddr: 0x2BDA0, symBinAddr: 0x33DA0, symSize: 0x3F4 }
  - { offset: 0x13E4ED, size: 0x8, addend: 0x0, symName: __ZNSt3__111basic_regexIcNS_12regex_traitsIcEEE19__parse_atom_escapeIPKcEET_S7_S7_, symObjAddr: 0x2C194, symBinAddr: 0x34194, symSize: 0x178 }
  - { offset: 0x13E501, size: 0x8, addend: 0x0, symName: __ZNSt3__111basic_regexIcNS_12regex_traitsIcEEE17__parse_assertionIPKcEET_S7_S7_, symObjAddr: 0x2B820, symBinAddr: 0x33820, symSize: 0x334 }
  - { offset: 0x13EBAD, size: 0x8, addend: 0x0, symName: __ZNSt3__111basic_regexIcNS_12regex_traitsIcEEE12__parse_atomIPKcEET_S7_S7_, symObjAddr: 0x2BB54, symBinAddr: 0x33B54, symSize: 0x24C }
  - { offset: 0x13EF6D, size: 0x8, addend: 0x0, symName: __ZNSt3__111basic_regexIcNS_12regex_traitsIcEEE23__parse_ERE_dupl_symbolIPKcEET_S7_S7_PNS_16__owns_one_stateIcEEjj, symObjAddr: 0x2BDA0, symBinAddr: 0x33DA0, symSize: 0x3F4 }
  - { offset: 0x13EF81, size: 0x8, addend: 0x0, symName: __ZNSt3__111basic_regexIcNS_12regex_traitsIcEEE26__parse_bracket_expressionIPKcEET_S7_S7_, symObjAddr: 0x2C30C, symBinAddr: 0x3430C, symSize: 0x150 }
  - { offset: 0x13F17C, size: 0x8, addend: 0x0, symName: __ZNSt3__111basic_regexIcNS_12regex_traitsIcEEE19__parse_atom_escapeIPKcEET_S7_S7_, symObjAddr: 0x2C194, symBinAddr: 0x34194, symSize: 0x178 }
  - { offset: 0x13F341, size: 0x8, addend: 0x0, symName: __ZNSt3__111basic_regexIcNS_12regex_traitsIcEEE26__parse_bracket_expressionIPKcEET_S7_S7_, symObjAddr: 0x2C30C, symBinAddr: 0x3430C, symSize: 0x150 }
  - { offset: 0x13F355, size: 0x8, addend: 0x0, symName: __ZNSt3__111basic_regexIcNS_12regex_traitsIcEEE25__parse_pattern_characterIPKcEET_S7_S7_, symObjAddr: 0x2C45C, symBinAddr: 0x3445C, symSize: 0x70 }
  - { offset: 0x13F455, size: 0x8, addend: 0x0, symName: __ZNSt3__111basic_regexIcNS_12regex_traitsIcEEE30__parse_character_class_escapeIPKcEET_S7_S7_, symObjAddr: 0x2C4CC, symBinAddr: 0x344CC, symSize: 0x248 }
  - { offset: 0x13F90D, size: 0x8, addend: 0x0, symName: __ZNSt3__111basic_regexIcNS_12regex_traitsIcEEE24__parse_character_escapeIPKcEET_S7_S7_PNS_12basic_stringIcNS_11char_traitsIcEENS_9allocatorIcEEEE, symObjAddr: 0x2C714, symBinAddr: 0x34714, symSize: 0x3D0 }
  - { offset: 0x13FD50, size: 0x8, addend: 0x0, symName: __ZNSt3__111basic_regexIcNS_12regex_traitsIcEEE23__parse_expression_termIPKcEET_S7_S7_PNS_20__bracket_expressionIcS2_EE, symObjAddr: 0x2CAE4, symBinAddr: 0x34AE4, symSize: 0x538 }
  - { offset: 0x13FDB9, size: 0x8, addend: 0x0, symName: __ZNSt3__111basic_regexIcNS_12regex_traitsIcEEE23__parse_expression_termIPKcEET_S7_S7_PNS_20__bracket_expressionIcS2_EE, symObjAddr: 0x2CAE4, symBinAddr: 0x34AE4, symSize: 0x538 }
  - { offset: 0x1413FC, size: 0x8, addend: 0x0, symName: __ZNSt3__111basic_regexIcNS_12regex_traitsIcEEE25__parse_equivalence_classIPKcEET_S7_S7_PNS_20__bracket_expressionIcS2_EE, symObjAddr: 0x2D01C, symBinAddr: 0x3501C, symSize: 0x26C }
  - { offset: 0x141F86, size: 0x8, addend: 0x0, symName: __ZNSt3__111basic_regexIcNS_12regex_traitsIcEEE18__parse_awk_escapeIPKcEET_S7_S7_PNS_12basic_stringIcNS_11char_traitsIcEENS_9allocatorIcEEEE, symObjAddr: 0x2D4E0, symBinAddr: 0x354E0, symSize: 0x2EC }
  - { offset: 0x1420AC, size: 0x8, addend: 0x0, symName: __ZNKSt3__112regex_traitsIcE20__lookup_collatenameIPKcEENS_12basic_stringIcNS_11char_traitsIcEENS_9allocatorIcEEEET_SB_c, symObjAddr: 0x2D7CC, symBinAddr: 0x357CC, symSize: 0x23C }
  - { offset: 0x1420C0, size: 0x8, addend: 0x0, symName: __ZNSt3__111basic_regexIcNS_12regex_traitsIcEEE24__parse_collating_symbolIPKcEET_S7_S7_RNS_12basic_stringIcNS_11char_traitsIcEENS_9allocatorIcEEEE, symObjAddr: 0x2D288, symBinAddr: 0x35288, symSize: 0xFC }
  - { offset: 0x142455, size: 0x8, addend: 0x0, symName: __ZNSt3__111basic_regexIcNS_12regex_traitsIcEEE20__parse_class_escapeIPKcEET_S7_S7_RNS_12basic_stringIcNS_11char_traitsIcEENS_9allocatorIcEEEEPNS_20__bracket_expressionIcS2_EE, symObjAddr: 0x2D384, symBinAddr: 0x35384, symSize: 0x15C }
  - { offset: 0x142460, size: 0x8, addend: 0x0, symName: __ZNKSt3__112regex_traitsIcE18__lookup_classnameIPKcEEjT_S5_bc, symObjAddr: 0x2DA08, symBinAddr: 0x35A08, symSize: 0x148 }
  - { offset: 0x142B5D, size: 0x8, addend: 0x0, symName: __ZNKSt3__112regex_traitsIcE20__lookup_collatenameIPKcEENS_12basic_stringIcNS_11char_traitsIcEENS_9allocatorIcEEEET_SB_c, symObjAddr: 0x2D7CC, symBinAddr: 0x357CC, symSize: 0x23C }
  - { offset: 0x1437C2, size: 0x8, addend: 0x0, symName: __ZNSt3__111basic_regexIcNS_12regex_traitsIcEEE20__parse_class_escapeIPKcEET_S7_S7_RNS_12basic_stringIcNS_11char_traitsIcEENS_9allocatorIcEEEEPNS_20__bracket_expressionIcS2_EE, symObjAddr: 0x2D384, symBinAddr: 0x35384, symSize: 0x15C }
  - { offset: 0x143970, size: 0x8, addend: 0x0, symName: __ZNSt3__111basic_regexIcNS_12regex_traitsIcEEE18__parse_awk_escapeIPKcEET_S7_S7_PNS_12basic_stringIcNS_11char_traitsIcEENS_9allocatorIcEEEE, symObjAddr: 0x2D4E0, symBinAddr: 0x354E0, symSize: 0x2EC }
  - { offset: 0x143B98, size: 0x8, addend: 0x0, symName: __ZNSt3__111basic_regexIcNS_12regex_traitsIcEEE32__parse_one_char_or_coll_elem_REIPKcEET_S7_S7_, symObjAddr: 0x2DFE8, symBinAddr: 0x35FE8, symSize: 0x140 }
  - { offset: 0x143EC8, size: 0x8, addend: 0x0, symName: __ZNSt3__111basic_regexIcNS_12regex_traitsIcEEE20__parse_ORD_CHAR_EREIPKcEET_S7_S7_, symObjAddr: 0x2E3AC, symBinAddr: 0x363AC, symSize: 0x78 }
  - { offset: 0x143F2A, size: 0x8, addend: 0x0, symName: __ZNSt3__111basic_regexIcNS_12regex_traitsIcEEE23__parse_QUOTED_CHAR_EREIPKcEET_S7_S7_, symObjAddr: 0x2E424, symBinAddr: 0x36424, symSize: 0xC0 }
  - { offset: 0x144301, size: 0x8, addend: 0x0, symName: __ZL43whisper_grammar_reject_candidates_for_stackRKNSt3__16vectorINS0_I23whisper_grammar_elementNS_9allocatorIS1_EEEENS2_IS4_EEEERKNS0_IPKS1_NS2_ISA_EEEERKNS0_I25whisper_grammar_candidateNS2_ISF_EEEE, symObjAddr: 0x2ED08, symBinAddr: 0x36D08, symSize: 0xC7C }
  - { offset: 0x14731F, size: 0x8, addend: 0x0, symName: __ZNKSt3__16vectorINS_4pairINS0_IjNS_9allocatorIjEEEE20whisper_partial_utf8EENS2_IS6_EEE20__throw_length_errorB8ne180100Ev, symObjAddr: 0x2ECE0, symBinAddr: 0x36CE0, symSize: 0x14 }
  - { offset: 0x147349, size: 0x8, addend: 0x0, symName: __ZNKSt3__16vectorI25whisper_grammar_candidateNS_9allocatorIS1_EEE20__throw_length_errorB8ne180100Ev, symObjAddr: 0x2ECF4, symBinAddr: 0x36CF4, symSize: 0x14 }
  - { offset: 0x1477BF, size: 0x8, addend: 0x0, symName: __ZNSt3__121discrete_distributionIiE10param_type6__initEv, symObjAddr: 0x2FB94, symBinAddr: 0x37B94, symSize: 0x210 }
  - { offset: 0x147E4C, size: 0x8, addend: 0x0, symName: __ZNKSt3__16vectorIdNS_9allocatorIdEEE20__throw_length_errorB8ne180100Ev, symObjAddr: 0x2FDA4, symBinAddr: 0x37DA4, symSize: 0x14 }
  - { offset: 0x147E76, size: 0x8, addend: 0x0, symName: __ZNSt3__16vectorIdNS_9allocatorIdEEE13shrink_to_fitEv, symObjAddr: 0x2FDB8, symBinAddr: 0x37DB8, symSize: 0x128 }
  - { offset: 0x1480BB, size: 0x8, addend: 0x0, symName: __ZNSt3__16vectorIdNS_9allocatorIdEEE13shrink_to_fitEv, symObjAddr: 0x2FDB8, symBinAddr: 0x37DB8, symSize: 0x128 }
  - { offset: 0x1488BD, size: 0x8, addend: 0x0, symName: __ZNSt3__16vectorINS0_I23whisper_grammar_elementNS_9allocatorIS1_EEEENS2_IS4_EEEC2ERKS6_.cold.1, symObjAddr: 0x37B28, symBinAddr: 0xF7260, symSize: 0x40 }
  - { offset: 0x148ADC, size: 0x8, addend: 0x0, symName: __ZNSt3__128__exception_guard_exceptionsINS_29_AllocatorDestroyRangeReverseINS_9allocatorINS_6vectorI23whisper_grammar_elementNS2_IS4_EEEEEEPS6_EEED1B8ne180100Ev, symObjAddr: 0x30508, symBinAddr: 0x38508, symSize: 0x6C }
  - { offset: 0x148CD7, size: 0x8, addend: 0x0, symName: __ZNSt3__16vectorINS0_IPK23whisper_grammar_elementNS_9allocatorIS3_EEEENS4_IS6_EEEC2ERKS8_.cold.1, symObjAddr: 0x37B68, symBinAddr: 0xF72A0, symSize: 0x40 }
  - { offset: 0x148EF6, size: 0x8, addend: 0x0, symName: __ZNSt3__128__exception_guard_exceptionsINS_29_AllocatorDestroyRangeReverseINS_9allocatorINS_6vectorIPK23whisper_grammar_elementNS2_IS6_EEEEEEPS8_EEED1B8ne180100Ev, symObjAddr: 0x30748, symBinAddr: 0x38748, symSize: 0x6C }
  - { offset: 0x14922E, size: 0x8, addend: 0x0, symName: __ZNSt3__16vectorI23whisper_grammar_elementNS_9allocatorIS1_EEE18__assign_with_sizeB8ne180100IPS1_S6_EEvT_T0_l, symObjAddr: 0x30BC0, symBinAddr: 0x38BC0, symSize: 0x144 }
  - { offset: 0x149CE4, size: 0x8, addend: 0x0, symName: __ZNSt3__16vectorINS0_IPK23whisper_grammar_elementNS_9allocatorIS3_EEEENS4_IS6_EEE18__assign_with_sizeB8ne180100IPS6_SA_EEvT_T0_l, symObjAddr: 0x30D04, symBinAddr: 0x38D04, symSize: 0x274 }
  - { offset: 0x149E28, size: 0x8, addend: 0x0, symName: __ZNSt3__16vectorIPK23whisper_grammar_elementNS_9allocatorIS3_EEE18__assign_with_sizeB8ne180100IPS3_S8_EEvT_T0_l, symObjAddr: 0x30F78, symBinAddr: 0x38F78, symSize: 0x144 }
  - { offset: 0x14A8DE, size: 0x8, addend: 0x0, symName: __ZNSt3__16__treeINS_12__value_typeIiiEENS_19__map_value_compareIiS2_NS_4lessIiEELb1EEENS_9allocatorIS2_EEE7destroyEPNS_11__tree_nodeIS2_PvEE, symObjAddr: 0x310BC, symBinAddr: 0x390BC, symSize: 0x40 }
  - { offset: 0x14ADE2, size: 0x8, addend: 0x0, symName: __ZL13median_filterP11ggml_tensorPKS_iiPv, symObjAddr: 0x31530, symBinAddr: 0x39530, symSize: 0x448 }
  - { offset: 0x14BA15, size: 0x8, addend: 0x0, symName: __ZL13median_filterP11ggml_tensorPKS_iiPv.cold.4, symObjAddr: 0x37C50, symBinAddr: 0xF7388, symSize: 0x38 }
  - { offset: 0x14BA2D, size: 0x8, addend: 0x0, symName: __ZL13median_filterP11ggml_tensorPKS_iiPv.cold.1, symObjAddr: 0x37BA8, symBinAddr: 0xF72E0, symSize: 0x38 }
  - { offset: 0x14BA45, size: 0x8, addend: 0x0, symName: __ZL13median_filterP11ggml_tensorPKS_iiPv.cold.3, symObjAddr: 0x37C18, symBinAddr: 0xF7350, symSize: 0x38 }
  - { offset: 0x14BA5D, size: 0x8, addend: 0x0, symName: __ZL13median_filterP11ggml_tensorPKS_iiPv.cold.2, symObjAddr: 0x37BE0, symBinAddr: 0xF7318, symSize: 0x38 }
  - { offset: 0x14BCEF, size: 0x8, addend: 0x0, symName: __ZNSt3__16__treeINS_12__value_typeI7e_modelNS_12basic_stringIcNS_11char_traitsIcEENS_9allocatorIcEEEEEENS_19__map_value_compareIS2_S9_NS_4lessIS2_EELb1EEENS6_IS9_EEE30__emplace_hint_unique_key_argsIS2_JRKNS_4pairIKS2_S8_EEEEENSH_INS_15__tree_iteratorIS9_PNS_11__tree_nodeIS9_PvEElEEbEENS_21__tree_const_iteratorIS9_SQ_lEERKT_DpOT0_, symObjAddr: 0x3198C, symBinAddr: 0x3998C, symSize: 0x100 }
  - { offset: 0x14C16E, size: 0x8, addend: 0x0, symName: __ZNSt3__16__treeINS_12__value_typeI7e_modelNS_12basic_stringIcNS_11char_traitsIcEENS_9allocatorIcEEEEEENS_19__map_value_compareIS2_S9_NS_4lessIS2_EELb1EEENS6_IS9_EEE12__find_equalIS2_EERPNS_16__tree_node_baseIPvEENS_21__tree_const_iteratorIS9_PNS_11__tree_nodeIS9_SI_EElEERPNS_15__tree_end_nodeISK_EESL_RKT_, symObjAddr: 0x31A8C, symBinAddr: 0x39A8C, symSize: 0x1B0 }
  - { offset: 0x14C1D8, size: 0x8, addend: 0x0, symName: __ZNSt3__16__treeINS_12__value_typeI7e_modelNS_12basic_stringIcNS_11char_traitsIcEENS_9allocatorIcEEEEEENS_19__map_value_compareIS2_S9_NS_4lessIS2_EELb1EEENS6_IS9_EEE12__find_equalIS2_EERPNS_16__tree_node_baseIPvEENS_21__tree_const_iteratorIS9_PNS_11__tree_nodeIS9_SI_EElEERPNS_15__tree_end_nodeISK_EESL_RKT_, symObjAddr: 0x31A8C, symBinAddr: 0x39A8C, symSize: 0x1B0 }
  - { offset: 0x14C1F6, size: 0x8, addend: 0x0, symName: __ZNSt3__16__treeINS_12__value_typeI7e_modelNS_12basic_stringIcNS_11char_traitsIcEENS_9allocatorIcEEEEEENS_19__map_value_compareIS2_S9_NS_4lessIS2_EELb1EEENS6_IS9_EEE12__find_equalIS2_EERPNS_16__tree_node_baseIPvEENS_21__tree_const_iteratorIS9_PNS_11__tree_nodeIS9_SI_EElEERPNS_15__tree_end_nodeISK_EESL_RKT_, symObjAddr: 0x31A8C, symBinAddr: 0x39A8C, symSize: 0x1B0 }
  - { offset: 0x14C8E3, size: 0x8, addend: 0x0, symName: __ZNSt3__13mapINS_12basic_stringIcNS_11char_traitsIcEENS_9allocatorIcEEEENS_4pairIiS6_EENS_4lessIS6_EENS4_INS7_IKS6_S8_EEEEEC2B8ne180100ESt16initializer_listISC_ERKSA_, symObjAddr: 0x31D28, symBinAddr: 0x39D28, symSize: 0xF4 }
  - { offset: 0x14CC1F, size: 0x8, addend: 0x0, symName: __ZNSt3__16__treeINS_12__value_typeINS_12basic_stringIcNS_11char_traitsIcEENS_9allocatorIcEEEENS_4pairIiS7_EEEENS_19__map_value_compareIS7_SA_NS_4lessIS7_EELb1EEENS5_ISA_EEE12__find_equalIS7_EERPNS_16__tree_node_baseIPvEENS_21__tree_const_iteratorISA_PNS_11__tree_nodeISA_SJ_EElEERPNS_15__tree_end_nodeISL_EESM_RKT_, symObjAddr: 0x31E1C, symBinAddr: 0x39E1C, symSize: 0x3F8 }
  - { offset: 0x14D911, size: 0x8, addend: 0x0, symName: __ZNSt3__16__treeINS_12__value_typeINS_12basic_stringIcNS_11char_traitsIcEENS_9allocatorIcEEEENS_4pairIiS7_EEEENS_19__map_value_compareIS7_SA_NS_4lessIS7_EELb1EEENS5_ISA_EEE16__construct_nodeIJRKNS8_IKS7_S9_EEEEENS_10unique_ptrINS_11__tree_nodeISA_PvEENS_22__tree_node_destructorINS5_ISP_EEEEEEDpOT_, symObjAddr: 0x32214, symBinAddr: 0x3A214, symSize: 0xF4 }
  - { offset: 0x14E146, size: 0x8, addend: 0x0, symName: __ZNSt3__110unique_ptrINS_11__tree_nodeINS_12__value_typeINS_12basic_stringIcNS_11char_traitsIcEENS_9allocatorIcEEEENS_4pairIiS8_EEEEPvEENS_22__tree_node_destructorINS6_ISD_EEEEED1B8ne180100Ev, symObjAddr: 0x32308, symBinAddr: 0x3A308, symSize: 0x68 }
  - { offset: 0x14EA59, size: 0x8, addend: 0x0, symName: __ZNSt3__13mapI30whisper_alignment_heads_preset14whisper_aheadsNS_4lessIS1_EENS_9allocatorINS_4pairIKS1_S2_EEEEEC2B8ne180100ESt16initializer_listIS8_ERKS4_, symObjAddr: 0x323E8, symBinAddr: 0x3A3E8, symSize: 0xFC }
  - { offset: 0x14EE7A, size: 0x8, addend: 0x0, symName: __ZNSt3__16__treeINS_12__value_typeI30whisper_alignment_heads_preset14whisper_aheadsEENS_19__map_value_compareIS2_S4_NS_4lessIS2_EELb1EEENS_9allocatorIS4_EEE12__find_equalIS2_EERPNS_16__tree_node_baseIPvEENS_21__tree_const_iteratorIS4_PNS_11__tree_nodeIS4_SE_EElEERPNS_15__tree_end_nodeISG_EESH_RKT_, symObjAddr: 0x324E4, symBinAddr: 0x3A4E4, symSize: 0x1B0 }
  - { offset: 0x14EEE4, size: 0x8, addend: 0x0, symName: __ZNSt3__16__treeINS_12__value_typeI30whisper_alignment_heads_preset14whisper_aheadsEENS_19__map_value_compareIS2_S4_NS_4lessIS2_EELb1EEENS_9allocatorIS4_EEE12__find_equalIS2_EERPNS_16__tree_node_baseIPvEENS_21__tree_const_iteratorIS4_PNS_11__tree_nodeIS4_SE_EElEERPNS_15__tree_end_nodeISG_EESH_RKT_, symObjAddr: 0x324E4, symBinAddr: 0x3A4E4, symSize: 0x1B0 }
  - { offset: 0x14EF02, size: 0x8, addend: 0x0, symName: __ZNSt3__16__treeINS_12__value_typeI30whisper_alignment_heads_preset14whisper_aheadsEENS_19__map_value_compareIS2_S4_NS_4lessIS2_EELb1EEENS_9allocatorIS4_EEE12__find_equalIS2_EERPNS_16__tree_node_baseIPvEENS_21__tree_const_iteratorIS4_PNS_11__tree_nodeIS4_SE_EElEERPNS_15__tree_end_nodeISG_EESH_RKT_, symObjAddr: 0x324E4, symBinAddr: 0x3A4E4, symSize: 0x1B0 }
  - { offset: 0x14F3EB, size: 0x8, addend: 0x0, symName: '__ZNSt3__110__function6__funcIZ18whisper_init_stateE3$_0NS_9allocatorIS2_EEFP11ggml_cgraphvEED1Ev', symObjAddr: 0x32898, symBinAddr: 0x3A898, symSize: 0x4 }
  - { offset: 0x14F416, size: 0x8, addend: 0x0, symName: '__ZNSt3__110__function6__funcIZ18whisper_init_stateE3$_0NS_9allocatorIS2_EEFP11ggml_cgraphvEED0Ev', symObjAddr: 0x3289C, symBinAddr: 0x3A89C, symSize: 0x4 }
  - { offset: 0x14F61A, size: 0x8, addend: 0x0, symName: '__ZNKSt3__110__function6__funcIZ18whisper_init_stateE3$_0NS_9allocatorIS2_EEFP11ggml_cgraphvEE7__cloneEv', symObjAddr: 0x328A0, symBinAddr: 0x3A8A0, symSize: 0x38 }
  - { offset: 0x14F958, size: 0x8, addend: 0x0, symName: '__ZNKSt3__110__function6__funcIZ18whisper_init_stateE3$_0NS_9allocatorIS2_EEFP11ggml_cgraphvEE7__cloneEPNS0_6__baseIS7_EE', symObjAddr: 0x328D8, symBinAddr: 0x3A8D8, symSize: 0x18 }
  - { offset: 0x14F991, size: 0x8, addend: 0x0, symName: '__ZNKSt3__110__function6__funcIZ18whisper_init_stateE3$_0NS_9allocatorIS2_EEFP11ggml_cgraphvEE7__cloneEPNS0_6__baseIS7_EE', symObjAddr: 0x328D8, symBinAddr: 0x3A8D8, symSize: 0x18 }
  - { offset: 0x14F9B9, size: 0x8, addend: 0x0, symName: '__ZNKSt3__110__function6__funcIZ18whisper_init_stateE3$_0NS_9allocatorIS2_EEFP11ggml_cgraphvEE7__cloneEPNS0_6__baseIS7_EE', symObjAddr: 0x328D8, symBinAddr: 0x3A8D8, symSize: 0x18 }
  - { offset: 0x14FAB3, size: 0x8, addend: 0x0, symName: '__ZNSt3__110__function6__funcIZ18whisper_init_stateE3$_0NS_9allocatorIS2_EEFP11ggml_cgraphvEE7destroyEv', symObjAddr: 0x328F0, symBinAddr: 0x3A8F0, symSize: 0x4 }
  - { offset: 0x14FB04, size: 0x8, addend: 0x0, symName: '__ZNSt3__110__function6__funcIZ18whisper_init_stateE3$_0NS_9allocatorIS2_EEFP11ggml_cgraphvEE18destroy_deallocateEv', symObjAddr: 0x328F4, symBinAddr: 0x3A8F4, symSize: 0x4 }
  - { offset: 0x14FB3B, size: 0x8, addend: 0x0, symName: '__ZNSt3__110__function6__funcIZ18whisper_init_stateE3$_0NS_9allocatorIS2_EEFP11ggml_cgraphvEE18destroy_deallocateEv', symObjAddr: 0x328F4, symBinAddr: 0x3A8F4, symSize: 0x4 }
  - { offset: 0x14FB60, size: 0x8, addend: 0x0, symName: '__ZNSt3__110__function6__funcIZ18whisper_init_stateE3$_0NS_9allocatorIS2_EEFP11ggml_cgraphvEE18destroy_deallocateEv', symObjAddr: 0x328F4, symBinAddr: 0x3A8F4, symSize: 0x4 }
  - { offset: 0x14FB8F, size: 0x8, addend: 0x0, symName: '__ZNSt3__110__function6__funcIZ18whisper_init_stateE3$_0NS_9allocatorIS2_EEFP11ggml_cgraphvEE18destroy_deallocateEv', symObjAddr: 0x328F4, symBinAddr: 0x3A8F4, symSize: 0x4 }
  - { offset: 0x14FBB8, size: 0x8, addend: 0x0, symName: '__ZNSt3__110__function6__funcIZ18whisper_init_stateE3$_0NS_9allocatorIS2_EEFP11ggml_cgraphvEE18destroy_deallocateEv', symObjAddr: 0x328F4, symBinAddr: 0x3A8F4, symSize: 0x4 }
  - { offset: 0x14FC32, size: 0x8, addend: 0x0, symName: '__ZNSt3__110__function6__funcIZ18whisper_init_stateE3$_0NS_9allocatorIS2_EEFP11ggml_cgraphvEEclEv', symObjAddr: 0x328F8, symBinAddr: 0x3A8F8, symSize: 0x10 }
  - { offset: 0x14FCC3, size: 0x8, addend: 0x0, symName: '__ZNKSt3__110__function6__funcIZ18whisper_init_stateE3$_0NS_9allocatorIS2_EEFP11ggml_cgraphvEE6targetERKSt9type_info', symObjAddr: 0x32908, symBinAddr: 0x3A908, symSize: 0x6C }
  - { offset: 0x14FD65, size: 0x8, addend: 0x0, symName: '__ZNKSt3__110__function6__funcIZ18whisper_init_stateE3$_0NS_9allocatorIS2_EEFP11ggml_cgraphvEE11target_typeEv', symObjAddr: 0x32974, symBinAddr: 0x3A974, symSize: 0xC }
  - { offset: 0x14FD8A, size: 0x8, addend: 0x0, symName: '__ZNSt3__110__function6__funcIZ18whisper_init_stateE3$_1NS_9allocatorIS2_EEFP11ggml_cgraphvEED1Ev', symObjAddr: 0x32980, symBinAddr: 0x3A980, symSize: 0x4 }
  - { offset: 0x14FDB5, size: 0x8, addend: 0x0, symName: '__ZNSt3__110__function6__funcIZ18whisper_init_stateE3$_1NS_9allocatorIS2_EEFP11ggml_cgraphvEED0Ev', symObjAddr: 0x32984, symBinAddr: 0x3A984, symSize: 0x4 }
  - { offset: 0x14FFB9, size: 0x8, addend: 0x0, symName: '__ZNKSt3__110__function6__funcIZ18whisper_init_stateE3$_1NS_9allocatorIS2_EEFP11ggml_cgraphvEE7__cloneEv', symObjAddr: 0x32988, symBinAddr: 0x3A988, symSize: 0x38 }
  - { offset: 0x1502F7, size: 0x8, addend: 0x0, symName: '__ZNKSt3__110__function6__funcIZ18whisper_init_stateE3$_1NS_9allocatorIS2_EEFP11ggml_cgraphvEE7__cloneEPNS0_6__baseIS7_EE', symObjAddr: 0x329C0, symBinAddr: 0x3A9C0, symSize: 0x18 }
  - { offset: 0x150330, size: 0x8, addend: 0x0, symName: '__ZNKSt3__110__function6__funcIZ18whisper_init_stateE3$_1NS_9allocatorIS2_EEFP11ggml_cgraphvEE7__cloneEPNS0_6__baseIS7_EE', symObjAddr: 0x329C0, symBinAddr: 0x3A9C0, symSize: 0x18 }
  - { offset: 0x150358, size: 0x8, addend: 0x0, symName: '__ZNKSt3__110__function6__funcIZ18whisper_init_stateE3$_1NS_9allocatorIS2_EEFP11ggml_cgraphvEE7__cloneEPNS0_6__baseIS7_EE', symObjAddr: 0x329C0, symBinAddr: 0x3A9C0, symSize: 0x18 }
  - { offset: 0x150452, size: 0x8, addend: 0x0, symName: '__ZNSt3__110__function6__funcIZ18whisper_init_stateE3$_1NS_9allocatorIS2_EEFP11ggml_cgraphvEE7destroyEv', symObjAddr: 0x329D8, symBinAddr: 0x3A9D8, symSize: 0x4 }
  - { offset: 0x1504A3, size: 0x8, addend: 0x0, symName: '__ZNSt3__110__function6__funcIZ18whisper_init_stateE3$_1NS_9allocatorIS2_EEFP11ggml_cgraphvEE18destroy_deallocateEv', symObjAddr: 0x329DC, symBinAddr: 0x3A9DC, symSize: 0x4 }
  - { offset: 0x1504DA, size: 0x8, addend: 0x0, symName: '__ZNSt3__110__function6__funcIZ18whisper_init_stateE3$_1NS_9allocatorIS2_EEFP11ggml_cgraphvEE18destroy_deallocateEv', symObjAddr: 0x329DC, symBinAddr: 0x3A9DC, symSize: 0x4 }
  - { offset: 0x1504FF, size: 0x8, addend: 0x0, symName: '__ZNSt3__110__function6__funcIZ18whisper_init_stateE3$_1NS_9allocatorIS2_EEFP11ggml_cgraphvEE18destroy_deallocateEv', symObjAddr: 0x329DC, symBinAddr: 0x3A9DC, symSize: 0x4 }
  - { offset: 0x15052E, size: 0x8, addend: 0x0, symName: '__ZNSt3__110__function6__funcIZ18whisper_init_stateE3$_1NS_9allocatorIS2_EEFP11ggml_cgraphvEE18destroy_deallocateEv', symObjAddr: 0x329DC, symBinAddr: 0x3A9DC, symSize: 0x4 }
  - { offset: 0x150557, size: 0x8, addend: 0x0, symName: '__ZNSt3__110__function6__funcIZ18whisper_init_stateE3$_1NS_9allocatorIS2_EEFP11ggml_cgraphvEE18destroy_deallocateEv', symObjAddr: 0x329DC, symBinAddr: 0x3A9DC, symSize: 0x4 }
  - { offset: 0x1505D1, size: 0x8, addend: 0x0, symName: '__ZNSt3__110__function6__funcIZ18whisper_init_stateE3$_1NS_9allocatorIS2_EEFP11ggml_cgraphvEEclEv', symObjAddr: 0x329E0, symBinAddr: 0x3A9E0, symSize: 0x10 }
  - { offset: 0x150662, size: 0x8, addend: 0x0, symName: '__ZNKSt3__110__function6__funcIZ18whisper_init_stateE3$_1NS_9allocatorIS2_EEFP11ggml_cgraphvEE6targetERKSt9type_info', symObjAddr: 0x329F0, symBinAddr: 0x3A9F0, symSize: 0x6C }
  - { offset: 0x150704, size: 0x8, addend: 0x0, symName: '__ZNKSt3__110__function6__funcIZ18whisper_init_stateE3$_1NS_9allocatorIS2_EEFP11ggml_cgraphvEE11target_typeEv', symObjAddr: 0x32A5C, symBinAddr: 0x3AA5C, symSize: 0xC }
  - { offset: 0x150729, size: 0x8, addend: 0x0, symName: '__ZNSt3__110__function6__funcIZ18whisper_init_stateE3$_2NS_9allocatorIS2_EEFP11ggml_cgraphvEED1Ev', symObjAddr: 0x32A68, symBinAddr: 0x3AA68, symSize: 0x4 }
  - { offset: 0x150754, size: 0x8, addend: 0x0, symName: '__ZNSt3__110__function6__funcIZ18whisper_init_stateE3$_2NS_9allocatorIS2_EEFP11ggml_cgraphvEED0Ev', symObjAddr: 0x32A6C, symBinAddr: 0x3AA6C, symSize: 0x4 }
  - { offset: 0x150958, size: 0x8, addend: 0x0, symName: '__ZNKSt3__110__function6__funcIZ18whisper_init_stateE3$_2NS_9allocatorIS2_EEFP11ggml_cgraphvEE7__cloneEv', symObjAddr: 0x32A70, symBinAddr: 0x3AA70, symSize: 0x38 }
  - { offset: 0x150C96, size: 0x8, addend: 0x0, symName: '__ZNKSt3__110__function6__funcIZ18whisper_init_stateE3$_2NS_9allocatorIS2_EEFP11ggml_cgraphvEE7__cloneEPNS0_6__baseIS7_EE', symObjAddr: 0x32AA8, symBinAddr: 0x3AAA8, symSize: 0x18 }
  - { offset: 0x150CCF, size: 0x8, addend: 0x0, symName: '__ZNKSt3__110__function6__funcIZ18whisper_init_stateE3$_2NS_9allocatorIS2_EEFP11ggml_cgraphvEE7__cloneEPNS0_6__baseIS7_EE', symObjAddr: 0x32AA8, symBinAddr: 0x3AAA8, symSize: 0x18 }
  - { offset: 0x150CF7, size: 0x8, addend: 0x0, symName: '__ZNKSt3__110__function6__funcIZ18whisper_init_stateE3$_2NS_9allocatorIS2_EEFP11ggml_cgraphvEE7__cloneEPNS0_6__baseIS7_EE', symObjAddr: 0x32AA8, symBinAddr: 0x3AAA8, symSize: 0x18 }
  - { offset: 0x150DF1, size: 0x8, addend: 0x0, symName: '__ZNSt3__110__function6__funcIZ18whisper_init_stateE3$_2NS_9allocatorIS2_EEFP11ggml_cgraphvEE7destroyEv', symObjAddr: 0x32AC0, symBinAddr: 0x3AAC0, symSize: 0x4 }
  - { offset: 0x150E42, size: 0x8, addend: 0x0, symName: '__ZNSt3__110__function6__funcIZ18whisper_init_stateE3$_2NS_9allocatorIS2_EEFP11ggml_cgraphvEE18destroy_deallocateEv', symObjAddr: 0x32AC4, symBinAddr: 0x3AAC4, symSize: 0x4 }
  - { offset: 0x150E79, size: 0x8, addend: 0x0, symName: '__ZNSt3__110__function6__funcIZ18whisper_init_stateE3$_2NS_9allocatorIS2_EEFP11ggml_cgraphvEE18destroy_deallocateEv', symObjAddr: 0x32AC4, symBinAddr: 0x3AAC4, symSize: 0x4 }
  - { offset: 0x150E9E, size: 0x8, addend: 0x0, symName: '__ZNSt3__110__function6__funcIZ18whisper_init_stateE3$_2NS_9allocatorIS2_EEFP11ggml_cgraphvEE18destroy_deallocateEv', symObjAddr: 0x32AC4, symBinAddr: 0x3AAC4, symSize: 0x4 }
  - { offset: 0x150ECD, size: 0x8, addend: 0x0, symName: '__ZNSt3__110__function6__funcIZ18whisper_init_stateE3$_2NS_9allocatorIS2_EEFP11ggml_cgraphvEE18destroy_deallocateEv', symObjAddr: 0x32AC4, symBinAddr: 0x3AAC4, symSize: 0x4 }
  - { offset: 0x150EF6, size: 0x8, addend: 0x0, symName: '__ZNSt3__110__function6__funcIZ18whisper_init_stateE3$_2NS_9allocatorIS2_EEFP11ggml_cgraphvEE18destroy_deallocateEv', symObjAddr: 0x32AC4, symBinAddr: 0x3AAC4, symSize: 0x4 }
  - { offset: 0x150F70, size: 0x8, addend: 0x0, symName: '__ZNSt3__110__function6__funcIZ18whisper_init_stateE3$_2NS_9allocatorIS2_EEFP11ggml_cgraphvEEclEv', symObjAddr: 0x32AC8, symBinAddr: 0x3AAC8, symSize: 0x10 }
  - { offset: 0x151001, size: 0x8, addend: 0x0, symName: '__ZNKSt3__110__function6__funcIZ18whisper_init_stateE3$_2NS_9allocatorIS2_EEFP11ggml_cgraphvEE6targetERKSt9type_info', symObjAddr: 0x32AD8, symBinAddr: 0x3AAD8, symSize: 0x6C }
  - { offset: 0x1510A3, size: 0x8, addend: 0x0, symName: '__ZNKSt3__110__function6__funcIZ18whisper_init_stateE3$_2NS_9allocatorIS2_EEFP11ggml_cgraphvEE11target_typeEv', symObjAddr: 0x32B44, symBinAddr: 0x3AB44, symSize: 0xC }
  - { offset: 0x1510C8, size: 0x8, addend: 0x0, symName: '__ZNSt3__110__function6__funcIZ18whisper_init_stateE3$_3NS_9allocatorIS2_EEFP11ggml_cgraphvEED1Ev', symObjAddr: 0x32B50, symBinAddr: 0x3AB50, symSize: 0x4 }
  - { offset: 0x1510F3, size: 0x8, addend: 0x0, symName: '__ZNSt3__110__function6__funcIZ18whisper_init_stateE3$_3NS_9allocatorIS2_EEFP11ggml_cgraphvEED0Ev', symObjAddr: 0x32B54, symBinAddr: 0x3AB54, symSize: 0x4 }
  - { offset: 0x1512F7, size: 0x8, addend: 0x0, symName: '__ZNKSt3__110__function6__funcIZ18whisper_init_stateE3$_3NS_9allocatorIS2_EEFP11ggml_cgraphvEE7__cloneEv', symObjAddr: 0x32B58, symBinAddr: 0x3AB58, symSize: 0x38 }
  - { offset: 0x151635, size: 0x8, addend: 0x0, symName: '__ZNKSt3__110__function6__funcIZ18whisper_init_stateE3$_3NS_9allocatorIS2_EEFP11ggml_cgraphvEE7__cloneEPNS0_6__baseIS7_EE', symObjAddr: 0x32B90, symBinAddr: 0x3AB90, symSize: 0x18 }
  - { offset: 0x15166E, size: 0x8, addend: 0x0, symName: '__ZNKSt3__110__function6__funcIZ18whisper_init_stateE3$_3NS_9allocatorIS2_EEFP11ggml_cgraphvEE7__cloneEPNS0_6__baseIS7_EE', symObjAddr: 0x32B90, symBinAddr: 0x3AB90, symSize: 0x18 }
  - { offset: 0x151696, size: 0x8, addend: 0x0, symName: '__ZNKSt3__110__function6__funcIZ18whisper_init_stateE3$_3NS_9allocatorIS2_EEFP11ggml_cgraphvEE7__cloneEPNS0_6__baseIS7_EE', symObjAddr: 0x32B90, symBinAddr: 0x3AB90, symSize: 0x18 }
  - { offset: 0x151790, size: 0x8, addend: 0x0, symName: '__ZNSt3__110__function6__funcIZ18whisper_init_stateE3$_3NS_9allocatorIS2_EEFP11ggml_cgraphvEE7destroyEv', symObjAddr: 0x32BA8, symBinAddr: 0x3ABA8, symSize: 0x4 }
  - { offset: 0x1517E1, size: 0x8, addend: 0x0, symName: '__ZNSt3__110__function6__funcIZ18whisper_init_stateE3$_3NS_9allocatorIS2_EEFP11ggml_cgraphvEE18destroy_deallocateEv', symObjAddr: 0x32BAC, symBinAddr: 0x3ABAC, symSize: 0x4 }
  - { offset: 0x151818, size: 0x8, addend: 0x0, symName: '__ZNSt3__110__function6__funcIZ18whisper_init_stateE3$_3NS_9allocatorIS2_EEFP11ggml_cgraphvEE18destroy_deallocateEv', symObjAddr: 0x32BAC, symBinAddr: 0x3ABAC, symSize: 0x4 }
  - { offset: 0x15183D, size: 0x8, addend: 0x0, symName: '__ZNSt3__110__function6__funcIZ18whisper_init_stateE3$_3NS_9allocatorIS2_EEFP11ggml_cgraphvEE18destroy_deallocateEv', symObjAddr: 0x32BAC, symBinAddr: 0x3ABAC, symSize: 0x4 }
  - { offset: 0x15186C, size: 0x8, addend: 0x0, symName: '__ZNSt3__110__function6__funcIZ18whisper_init_stateE3$_3NS_9allocatorIS2_EEFP11ggml_cgraphvEE18destroy_deallocateEv', symObjAddr: 0x32BAC, symBinAddr: 0x3ABAC, symSize: 0x4 }
  - { offset: 0x151895, size: 0x8, addend: 0x0, symName: '__ZNSt3__110__function6__funcIZ18whisper_init_stateE3$_3NS_9allocatorIS2_EEFP11ggml_cgraphvEE18destroy_deallocateEv', symObjAddr: 0x32BAC, symBinAddr: 0x3ABAC, symSize: 0x4 }
  - { offset: 0x151936, size: 0x8, addend: 0x0, symName: '__ZNSt3__110__function6__funcIZ18whisper_init_stateE3$_3NS_9allocatorIS2_EEFP11ggml_cgraphvEEclEv', symObjAddr: 0x32BB0, symBinAddr: 0x3ABB0, symSize: 0x7C }
  - { offset: 0x151962, size: 0x8, addend: 0x0, symName: '__ZNSt3__110__function6__funcIZ18whisper_init_stateE3$_3NS_9allocatorIS2_EEFP11ggml_cgraphvEEclEv', symObjAddr: 0x32BB0, symBinAddr: 0x3ABB0, symSize: 0x7C }
  - { offset: 0x151982, size: 0x8, addend: 0x0, symName: '__ZNSt3__110__function6__funcIZ18whisper_init_stateE3$_3NS_9allocatorIS2_EEFP11ggml_cgraphvEEclEv', symObjAddr: 0x32BB0, symBinAddr: 0x3ABB0, symSize: 0x7C }
  - { offset: 0x1519A1, size: 0x8, addend: 0x0, symName: '__ZNSt3__110__function6__funcIZ18whisper_init_stateE3$_3NS_9allocatorIS2_EEFP11ggml_cgraphvEEclEv', symObjAddr: 0x32BB0, symBinAddr: 0x3ABB0, symSize: 0x7C }
  - { offset: 0x1519C1, size: 0x8, addend: 0x0, symName: '__ZNSt3__110__function6__funcIZ18whisper_init_stateE3$_3NS_9allocatorIS2_EEFP11ggml_cgraphvEEclEv', symObjAddr: 0x32BB0, symBinAddr: 0x3ABB0, symSize: 0x7C }
  - { offset: 0x151A6E, size: 0x8, addend: 0x0, symName: '__ZNKSt3__110__function6__funcIZ18whisper_init_stateE3$_3NS_9allocatorIS2_EEFP11ggml_cgraphvEE6targetERKSt9type_info', symObjAddr: 0x32C2C, symBinAddr: 0x3AC2C, symSize: 0x6C }
  - { offset: 0x151B10, size: 0x8, addend: 0x0, symName: '__ZNKSt3__110__function6__funcIZ18whisper_init_stateE3$_3NS_9allocatorIS2_EEFP11ggml_cgraphvEE11target_typeEv', symObjAddr: 0x32C98, symBinAddr: 0x3AC98, symSize: 0xC }
  - { offset: 0x151E88, size: 0x8, addend: 0x0, symName: __ZNKSt3__16vectorI15whisper_segmentNS_9allocatorIS1_EEE20__throw_length_errorB8ne180100Ev, symObjAddr: 0x34468, symBinAddr: 0x3C468, symSize: 0x14 }
  - { offset: 0x151EB2, size: 0x8, addend: 0x0, symName: __ZNSt3__16vectorINS_12basic_stringIcNS_11char_traitsIcEENS_9allocatorIcEEEENS4_IS6_EEEC2B8ne180100ESt16initializer_listIS6_E, symObjAddr: 0x3447C, symBinAddr: 0x3C47C, symSize: 0x128 }
  - { offset: 0x152028, size: 0x8, addend: 0x0, symName: __ZNSt3__16vectorINS_12basic_stringIcNS_11char_traitsIcEENS_9allocatorIcEEEENS4_IS6_EEEC2B8ne180100ESt16initializer_listIS6_E, symObjAddr: 0x3447C, symBinAddr: 0x3C47C, symSize: 0x128 }
  - { offset: 0x15258E, size: 0x8, addend: 0x0, symName: __ZNSt3__128__exception_guard_exceptionsINS_6vectorINS_12basic_stringIcNS_11char_traitsIcEENS_9allocatorIcEEEENS5_IS7_EEE16__destroy_vectorEED1B8ne180100Ev, symObjAddr: 0x345A4, symBinAddr: 0x3C5A4, symSize: 0x94 }
  - { offset: 0x152E0C, size: 0x8, addend: 0x0, symName: '__ZNSt3__110unique_ptrINS_5tupleIJNS0_INS_15__thread_structENS_14default_deleteIS2_EEEEZ23whisper_full_with_stateE3$_0EEENS3_IS7_EEED1B8ne180100Ev', symObjAddr: 0x34EAC, symBinAddr: 0x3CEAC, symSize: 0x48 }
  - { offset: 0x15319C, size: 0x8, addend: 0x0, symName: '__ZNSt3__110unique_ptrINS_5tupleIJNS0_INS_15__thread_structENS_14default_deleteIS2_EEEEZ23whisper_full_with_stateE3$_2EEENS3_IS7_EEED1B8ne180100Ev', symObjAddr: 0x374FC, symBinAddr: 0x3F4FC, symSize: 0x48 }
  - { offset: 0x15396C, size: 0x8, addend: 0x0, symName: __ZNSt3__110unique_ptrINS_5tupleIJNS0_INS_15__thread_structENS_14default_deleteIS2_EEEEPFiP15whisper_contextP13whisper_state19whisper_full_paramsPKfiES7_S9_SA_SC_iEEENS3_ISF_EEED1B8ne180100Ev, symObjAddr: 0x37730, symBinAddr: 0x3F730, symSize: 0x48 }
  - { offset: 0x153D53, size: 0x8, addend: 0x0, symName: '__ZNSt3__110unique_ptrINS_5tupleIJNS0_INS_15__thread_structENS_14default_deleteIS2_EEEEZ24whisper_bench_memcpy_strE3$_0iEEENS3_IS7_EEED1B8ne180100Ev', symObjAddr: 0x37898, symBinAddr: 0x3F898, symSize: 0x48 }
  - { offset: 0x153F71, size: 0x8, addend: 0x0, symName: _OUTLINED_FUNCTION_0, symObjAddr: 0x37C88, symBinAddr: 0x3F8E0, symSize: 0x18 }
  - { offset: 0x153F89, size: 0x8, addend: 0x0, symName: _OUTLINED_FUNCTION_1, symObjAddr: 0x37CA0, symBinAddr: 0x3F8F8, symSize: 0x18 }
  - { offset: 0x153FA1, size: 0x8, addend: 0x0, symName: _OUTLINED_FUNCTION_2, symObjAddr: 0x37CB8, symBinAddr: 0x3F910, symSize: 0xC }
  - { offset: 0x153FB9, size: 0x8, addend: 0x0, symName: _OUTLINED_FUNCTION_3, symObjAddr: 0x37CC4, symBinAddr: 0x3F91C, symSize: 0x8 }
  - { offset: 0x153FD1, size: 0x8, addend: 0x0, symName: _OUTLINED_FUNCTION_4, symObjAddr: 0x37CCC, symBinAddr: 0x3F924, symSize: 0xC }
  - { offset: 0x153FE9, size: 0x8, addend: 0x0, symName: _OUTLINED_FUNCTION_5, symObjAddr: 0x37CD8, symBinAddr: 0x3F930, symSize: 0xC }
  - { offset: 0x154001, size: 0x8, addend: 0x0, symName: _OUTLINED_FUNCTION_6, symObjAddr: 0x37CE4, symBinAddr: 0x3F93C, symSize: 0x8 }
  - { offset: 0x154019, size: 0x8, addend: 0x0, symName: _OUTLINED_FUNCTION_7, symObjAddr: 0x37CEC, symBinAddr: 0x3F944, symSize: 0x8 }
  - { offset: 0x154031, size: 0x8, addend: 0x0, symName: _OUTLINED_FUNCTION_8, symObjAddr: 0x37CF4, symBinAddr: 0x3F94C, symSize: 0xC }
  - { offset: 0x154049, size: 0x8, addend: 0x0, symName: _OUTLINED_FUNCTION_9, symObjAddr: 0x37D00, symBinAddr: 0x3F958, symSize: 0xC }
  - { offset: 0x16B04B, size: 0x8, addend: 0x0, symName: _ggml_backend_register, symObjAddr: 0x0, symBinAddr: 0x4277C, symSize: 0xD0 }
  - { offset: 0x16B228, size: 0x8, addend: 0x0, symName: __ZN21ggml_backend_registry16register_backendEP16ggml_backend_regNSt3__110unique_ptrIv17dl_handle_deleterEE, symObjAddr: 0xD0, symBinAddr: 0x4284C, symSize: 0xD4 }
  - { offset: 0x16B526, size: 0x8, addend: 0x0, symName: __ZN21ggml_backend_registryC2Ev, symObjAddr: 0x2BF4, symBinAddr: 0x45370, symSize: 0x104 }
  - { offset: 0x16BB55, size: 0x8, addend: 0x0, symName: __ZNSt3__110unique_ptrIv17dl_handle_deleterED1B8ne180100Ev, symObjAddr: 0x1A4, symBinAddr: 0x42920, symSize: 0x34 }
  - { offset: 0x16BDF8, size: 0x8, addend: 0x0, symName: __ZNSt3__16vectorI22ggml_backend_reg_entryNS_9allocatorIS1_EEE21__push_back_slow_pathIS1_EEPS1_OT_, symObjAddr: 0x2E58, symBinAddr: 0x455C4, symSize: 0x1B4 }
  - { offset: 0x16C4C7, size: 0x8, addend: 0x0, symName: __ZN21ggml_backend_registry15register_deviceEP19ggml_backend_device, symObjAddr: 0x280, symBinAddr: 0x429FC, symSize: 0x180 }
  - { offset: 0x16C8FA, size: 0x8, addend: 0x0, symName: _ggml_backend_reg_count, symObjAddr: 0x400, symBinAddr: 0x42B7C, symSize: 0x98 }
  - { offset: 0x16C905, size: 0x8, addend: 0x0, symName: __ZN22ggml_backend_reg_entryD1Ev, symObjAddr: 0x2D7C, symBinAddr: 0x454E8, symSize: 0x34 }
  - { offset: 0x16C9CF, size: 0x8, addend: 0x0, symName: _ggml_backend_device_register, symObjAddr: 0x1D8, symBinAddr: 0x42954, symSize: 0xA8 }
  - { offset: 0x16CE0C, size: 0x8, addend: 0x0, symName: __ZNKSt3__16vectorIP19ggml_backend_deviceNS_9allocatorIS2_EEE20__throw_length_errorB8ne180100Ev, symObjAddr: 0x30BC, symBinAddr: 0x4578C, symSize: 0x14 }
  - { offset: 0x16CE5D, size: 0x8, addend: 0x0, symName: _ggml_backend_reg_count, symObjAddr: 0x400, symBinAddr: 0x42B7C, symSize: 0x98 }
  - { offset: 0x16CF03, size: 0x8, addend: 0x0, symName: _ggml_backend_reg_get, symObjAddr: 0x498, symBinAddr: 0x42C14, symSize: 0x148 }
  - { offset: 0x16D075, size: 0x8, addend: 0x0, symName: _ggml_backend_reg_by_name, symObjAddr: 0x5E0, symBinAddr: 0x42D5C, symSize: 0x134 }
  - { offset: 0x16D216, size: 0x8, addend: 0x0, symName: _ggml_backend_dev_count, symObjAddr: 0x714, symBinAddr: 0x42E90, symSize: 0x98 }
  - { offset: 0x16D2BC, size: 0x8, addend: 0x0, symName: _ggml_backend_dev_get, symObjAddr: 0x7AC, symBinAddr: 0x42F28, symSize: 0x144 }
  - { offset: 0x16D3CB, size: 0x8, addend: 0x0, symName: _ggml_backend_dev_by_name, symObjAddr: 0x8F0, symBinAddr: 0x4306C, symSize: 0x138 }
  - { offset: 0x16D549, size: 0x8, addend: 0x0, symName: _ggml_backend_dev_by_type, symObjAddr: 0xA28, symBinAddr: 0x431A4, symSize: 0xE8 }
  - { offset: 0x16D656, size: 0x8, addend: 0x0, symName: _ggml_backend_init_by_name, symObjAddr: 0xB10, symBinAddr: 0x4328C, symSize: 0x34 }
  - { offset: 0x16D6E1, size: 0x8, addend: 0x0, symName: _ggml_backend_init_by_type, symObjAddr: 0xB44, symBinAddr: 0x432C0, symSize: 0x34 }
  - { offset: 0x16D755, size: 0x8, addend: 0x0, symName: _ggml_backend_init_best, symObjAddr: 0xB78, symBinAddr: 0x432F4, symSize: 0x30 }
  - { offset: 0x16DAB5, size: 0x8, addend: 0x0, symName: _ggml_backend_load, symObjAddr: 0xBA8, symBinAddr: 0x43324, symSize: 0x110 }
  - { offset: 0x16DDF4, size: 0x8, addend: 0x0, symName: __ZNSt3__112basic_stringIcNS_11char_traitsIcEENS_9allocatorIcEEE6appendB8ne180100IPKcLi0EEERS5_T_SA_, symObjAddr: 0x3248, symBinAddr: 0x45878, symSize: 0x260 }
  - { offset: 0x16E70E, size: 0x8, addend: 0x0, symName: __ZN21ggml_backend_registry12load_backendERKNSt3__14__fs10filesystem4pathEb, symObjAddr: 0xCB8, symBinAddr: 0x43434, symSize: 0x548 }
  - { offset: 0x170595, size: 0x8, addend: 0x0, symName: _ggml_backend_unload, symObjAddr: 0x1200, symBinAddr: 0x4397C, symSize: 0x98 }
  - { offset: 0x170611, size: 0x8, addend: 0x0, symName: __ZN21ggml_backend_registry14unload_backendEP16ggml_backend_regb, symObjAddr: 0x1298, symBinAddr: 0x43A14, symSize: 0x1D4 }
  - { offset: 0x171186, size: 0x8, addend: 0x0, symName: _ggml_backend_load_all, symObjAddr: 0x146C, symBinAddr: 0x43BE8, symSize: 0x8 }
  - { offset: 0x1711B3, size: 0x8, addend: 0x0, symName: _ggml_backend_load_all_from_path, symObjAddr: 0x1474, symBinAddr: 0x43BF0, symSize: 0xF8 }
  - { offset: 0x17131F, size: 0x8, addend: 0x0, symName: __ZL22ggml_backend_load_bestPKcbS0_, symObjAddr: 0x156C, symBinAddr: 0x43CE8, symSize: 0x1684 }
  - { offset: 0x17B443, size: 0x8, addend: 0x0, symName: __ZNSt3__16vectorINS_4__fs10filesystem4pathENS_9allocatorIS3_EEE21__push_back_slow_pathIS3_EEPS3_OT_, symObjAddr: 0x34A8, symBinAddr: 0x45AD8, symSize: 0x168 }
  - { offset: 0x17BB07, size: 0x8, addend: 0x0, symName: __ZNKSt3__16vectorINS_4__fs10filesystem4pathENS_9allocatorIS3_EEE20__throw_length_errorB8ne180100Ev, symObjAddr: 0x3610, symBinAddr: 0x45C40, symSize: 0x14 }
  - { offset: 0x17BB88, size: 0x8, addend: 0x0, symName: __ZNSt3__14__fs10filesystem18directory_iteratorD1B8ne180100Ev, symObjAddr: 0x3170, symBinAddr: 0x457A0, symSize: 0x68 }
  - { offset: 0x17BB93, size: 0x8, addend: 0x0, symName: __ZNSt3__14__fs10filesystem18directory_iteratorD1B8ne180100Ev, symObjAddr: 0x3170, symBinAddr: 0x457A0, symSize: 0x68 }
  - { offset: 0x17BC62, size: 0x8, addend: 0x0, symName: __ZNSt3__16vectorINS_4__fs10filesystem4pathENS_9allocatorIS3_EEED1B8ne180100Ev, symObjAddr: 0x31D8, symBinAddr: 0x45808, symSize: 0x70 }
  - { offset: 0x17BF2F, size: 0x8, addend: 0x0, symName: __ZN21ggml_backend_registryD1Ev, symObjAddr: 0x2BF0, symBinAddr: 0x4536C, symSize: 0x4 }
  - { offset: 0x17BF5B, size: 0x8, addend: 0x0, symName: __ZN21ggml_backend_registryD1Ev, symObjAddr: 0x2BF0, symBinAddr: 0x4536C, symSize: 0x4 }
  - { offset: 0x17BF6F, size: 0x8, addend: 0x0, symName: __ZN21ggml_backend_registryD2Ev, symObjAddr: 0x2DB0, symBinAddr: 0x4551C, symSize: 0xA8 }
  - { offset: 0x17C464, size: 0x8, addend: 0x0, symName: __ZNSt3__16vectorI22ggml_backend_reg_entryNS_9allocatorIS1_EEED1B8ne180100Ev, symObjAddr: 0x2CF8, symBinAddr: 0x45474, symSize: 0x74 }
  - { offset: 0x17C91B, size: 0x8, addend: 0x0, symName: __ZNKSt3__16vectorI22ggml_backend_reg_entryNS_9allocatorIS1_EEE20__throw_length_errorB8ne180100Ev, symObjAddr: 0x300C, symBinAddr: 0x45778, symSize: 0x14 }
  - { offset: 0x17CE52, size: 0x8, addend: 0x0, symName: __ZNKSt3__16vectorINS_4__fs10filesystem4pathENS_9allocatorIS3_EEE20__throw_length_errorB8ne180100Ev, symObjAddr: 0x3610, symBinAddr: 0x45C40, symSize: 0x14 }
  - { offset: 0x17ED3C, size: 0x8, addend: 0x0, symName: _ggml_tallocr_new, symObjAddr: 0x0, symBinAddr: 0x45C54, symSize: 0x58 }
  - { offset: 0x17FEC5, size: 0x8, addend: 0x0, symName: _ggml_tallocr_new, symObjAddr: 0x0, symBinAddr: 0x45C54, symSize: 0x58 }
  - { offset: 0x17FF7B, size: 0x8, addend: 0x0, symName: _ggml_tallocr_alloc, symObjAddr: 0x58, symBinAddr: 0x45CAC, symSize: 0xCC }
  - { offset: 0x18003D, size: 0x8, addend: 0x0, symName: _ggml_gallocr_new_n, symObjAddr: 0x124, symBinAddr: 0x45D78, symSize: 0x1F4 }
  - { offset: 0x180110, size: 0x8, addend: 0x0, symName: _ggml_gallocr_new_n, symObjAddr: 0x124, symBinAddr: 0x45D78, symSize: 0x1F4 }
  - { offset: 0x1802DE, size: 0x8, addend: 0x0, symName: _ggml_gallocr_new, symObjAddr: 0x318, symBinAddr: 0x45F6C, symSize: 0x28 }
  - { offset: 0x180331, size: 0x8, addend: 0x0, symName: _ggml_gallocr_new, symObjAddr: 0x318, symBinAddr: 0x45F6C, symSize: 0x28 }
  - { offset: 0x180392, size: 0x8, addend: 0x0, symName: _ggml_gallocr_free, symObjAddr: 0x340, symBinAddr: 0x45F94, symSize: 0xF4 }
  - { offset: 0x1808CE, size: 0x8, addend: 0x0, symName: _ggml_gallocr_reserve_n, symObjAddr: 0x434, symBinAddr: 0x46088, symSize: 0xD1C }
  - { offset: 0x181765, size: 0x8, addend: 0x0, symName: _ggml_gallocr_hash_get, symObjAddr: 0x1150, symBinAddr: 0x46DA4, symSize: 0x90 }
  - { offset: 0x18179B, size: 0x8, addend: 0x0, symName: _ggml_gallocr_allocate_node, symObjAddr: 0x1BB8, symBinAddr: 0x4780C, symSize: 0x57C }
  - { offset: 0x181DFE, size: 0x8, addend: 0x0, symName: _ggml_gallocr_hash_get, symObjAddr: 0x1150, symBinAddr: 0x46DA4, symSize: 0x90 }
  - { offset: 0x181EF0, size: 0x8, addend: 0x0, symName: _ggml_gallocr_reserve, symObjAddr: 0x11E0, symBinAddr: 0x46E34, symSize: 0xC }
  - { offset: 0x182084, size: 0x8, addend: 0x0, symName: _ggml_gallocr_alloc_graph, symObjAddr: 0x11EC, symBinAddr: 0x46E40, symSize: 0x594 }
  - { offset: 0x182549, size: 0x8, addend: 0x0, symName: _ggml_gallocr_get_buffer_size, symObjAddr: 0x1780, symBinAddr: 0x473D4, symSize: 0x88 }
  - { offset: 0x182580, size: 0x8, addend: 0x0, symName: _ggml_gallocr_get_buffer_size, symObjAddr: 0x1780, symBinAddr: 0x473D4, symSize: 0x88 }
  - { offset: 0x1825EF, size: 0x8, addend: 0x0, symName: _ggml_backend_alloc_ctx_tensors_from_buft, symObjAddr: 0x1808, symBinAddr: 0x4745C, symSize: 0x1AC }
  - { offset: 0x182603, size: 0x8, addend: 0x0, symName: _ggml_backend_alloc_ctx_tensors_from_buft, symObjAddr: 0x1808, symBinAddr: 0x4745C, symSize: 0x1AC }
  - { offset: 0x182839, size: 0x8, addend: 0x0, symName: _alloc_tensor_range, symObjAddr: 0x19B4, symBinAddr: 0x47608, symSize: 0x1D8 }
  - { offset: 0x1828B9, size: 0x8, addend: 0x0, symName: _alloc_tensor_range, symObjAddr: 0x19B4, symBinAddr: 0x47608, symSize: 0x1D8 }
  - { offset: 0x182CA7, size: 0x8, addend: 0x0, symName: _ggml_backend_alloc_ctx_tensors, symObjAddr: 0x1B8C, symBinAddr: 0x477E0, symSize: 0x2C }
  - { offset: 0x182E94, size: 0x8, addend: 0x0, symName: _ggml_backend_buft_name, symObjAddr: 0x0, symBinAddr: 0x47D88, symSize: 0x8 }
  - { offset: 0x182EB5, size: 0x8, addend: 0x0, symName: _ggml_backend_cpu_buffer_type, symObjAddr: 0x5158, symBinAddr: 0x4CEE0, symSize: 0xC }
  - { offset: 0x182EDD, size: 0x8, addend: 0x0, symName: __ZZ28ggml_backend_cpu_buffer_typeE28ggml_backend_cpu_buffer_type, symObjAddr: 0x64B8, symBinAddr: 0x12C7F0, symSize: 0x0 }
  - { offset: 0x182F7D, size: 0x8, addend: 0x0, symName: __ZL27ggml_backend_multi_buffer_i, symObjAddr: 0x63E0, symBinAddr: 0x1250F0, symSize: 0x0 }
  - { offset: 0x182F9C, size: 0x8, addend: 0x0, symName: __ZL25ggml_backend_cpu_buffer_i, symObjAddr: 0x6470, symBinAddr: 0x125180, symSize: 0x0 }
  - { offset: 0x182FB6, size: 0x8, addend: 0x0, symName: __ZL34ggml_backend_cpu_buffer_from_ptr_i, symObjAddr: 0x6428, symBinAddr: 0x125138, symSize: 0x0 }
  - { offset: 0x183276, size: 0x8, addend: 0x0, symName: _ggml_backend_buft_name, symObjAddr: 0x0, symBinAddr: 0x47D88, symSize: 0x8 }
  - { offset: 0x1832EE, size: 0x8, addend: 0x0, symName: _ggml_backend_buft_alloc_buffer, symObjAddr: 0x8, symBinAddr: 0x47D90, symSize: 0x54 }
  - { offset: 0x183359, size: 0x8, addend: 0x0, symName: _ggml_backend_buffer_init, symObjAddr: 0x5C, symBinAddr: 0x47DE4, symSize: 0x58 }
  - { offset: 0x1833A0, size: 0x8, addend: 0x0, symName: _ggml_backend_buft_get_alignment, symObjAddr: 0xB4, symBinAddr: 0x47E3C, symSize: 0x8 }
  - { offset: 0x1833D2, size: 0x8, addend: 0x0, symName: _ggml_backend_buft_get_max_size, symObjAddr: 0xBC, symBinAddr: 0x47E44, symSize: 0x14 }
  - { offset: 0x1833FD, size: 0x8, addend: 0x0, symName: _ggml_backend_buft_get_alloc_size, symObjAddr: 0xD0, symBinAddr: 0x47E58, symSize: 0x14 }
  - { offset: 0x183466, size: 0x8, addend: 0x0, symName: _ggml_backend_buft_is_host, symObjAddr: 0xE4, symBinAddr: 0x47E6C, symSize: 0x14 }
  - { offset: 0x183491, size: 0x8, addend: 0x0, symName: _ggml_backend_buft_get_device, symObjAddr: 0xF8, symBinAddr: 0x47E80, symSize: 0x8 }
  - { offset: 0x1834EE, size: 0x8, addend: 0x0, symName: _ggml_backend_buffer_name, symObjAddr: 0x100, symBinAddr: 0x47E88, symSize: 0xC }
  - { offset: 0x183510, size: 0x8, addend: 0x0, symName: _ggml_backend_buffer_name, symObjAddr: 0x100, symBinAddr: 0x47E88, symSize: 0xC }
  - { offset: 0x183555, size: 0x8, addend: 0x0, symName: _ggml_backend_buffer_get_type, symObjAddr: 0x10C, symBinAddr: 0x47E94, symSize: 0x8 }
  - { offset: 0x183574, size: 0x8, addend: 0x0, symName: _ggml_backend_buffer_free, symObjAddr: 0x114, symBinAddr: 0x47E9C, symSize: 0x38 }
  - { offset: 0x1835A7, size: 0x8, addend: 0x0, symName: _ggml_backend_buffer_get_size, symObjAddr: 0x14C, symBinAddr: 0x47ED4, symSize: 0x8 }
  - { offset: 0x1835C6, size: 0x8, addend: 0x0, symName: _ggml_backend_buffer_get_base, symObjAddr: 0x154, symBinAddr: 0x47EDC, symSize: 0x60 }
  - { offset: 0x1835FE, size: 0x8, addend: 0x0, symName: _ggml_backend_buffer_init_tensor, symObjAddr: 0x1B4, symBinAddr: 0x47F3C, symSize: 0x14 }
  - { offset: 0x18362B, size: 0x8, addend: 0x0, symName: _ggml_backend_buffer_init_tensor, symObjAddr: 0x1B4, symBinAddr: 0x47F3C, symSize: 0x14 }
  - { offset: 0x18365E, size: 0x8, addend: 0x0, symName: _ggml_backend_buffer_clear, symObjAddr: 0x1C8, symBinAddr: 0x47F50, symSize: 0x14 }
  - { offset: 0x1836A8, size: 0x8, addend: 0x0, symName: _ggml_backend_buffer_get_alignment, symObjAddr: 0x1DC, symBinAddr: 0x47F64, symSize: 0xC }
  - { offset: 0x1836D6, size: 0x8, addend: 0x0, symName: _ggml_backend_buffer_get_alignment, symObjAddr: 0x1DC, symBinAddr: 0x47F64, symSize: 0xC }
  - { offset: 0x183734, size: 0x8, addend: 0x0, symName: _ggml_backend_buffer_get_max_size, symObjAddr: 0x1E8, symBinAddr: 0x47F70, symSize: 0x18 }
  - { offset: 0x183762, size: 0x8, addend: 0x0, symName: _ggml_backend_buffer_get_max_size, symObjAddr: 0x1E8, symBinAddr: 0x47F70, symSize: 0x18 }
  - { offset: 0x1837DA, size: 0x8, addend: 0x0, symName: _ggml_backend_buffer_get_alloc_size, symObjAddr: 0x200, symBinAddr: 0x47F88, symSize: 0x18 }
  - { offset: 0x183804, size: 0x8, addend: 0x0, symName: _ggml_backend_buffer_get_alloc_size, symObjAddr: 0x200, symBinAddr: 0x47F88, symSize: 0x18 }
  - { offset: 0x183872, size: 0x8, addend: 0x0, symName: _ggml_backend_buffer_is_host, symObjAddr: 0x218, symBinAddr: 0x47FA0, symSize: 0x18 }
  - { offset: 0x183894, size: 0x8, addend: 0x0, symName: _ggml_backend_buffer_is_host, symObjAddr: 0x218, symBinAddr: 0x47FA0, symSize: 0x18 }
  - { offset: 0x183934, size: 0x8, addend: 0x0, symName: _ggml_backend_buffer_set_usage, symObjAddr: 0x230, symBinAddr: 0x47FB8, symSize: 0x6C }
  - { offset: 0x1839EC, size: 0x8, addend: 0x0, symName: _ggml_backend_buffer_is_multi_buffer, symObjAddr: 0x29C, symBinAddr: 0x48024, symSize: 0x18 }
  - { offset: 0x183A0B, size: 0x8, addend: 0x0, symName: _ggml_backend_multi_buffer_set_usage, symObjAddr: 0x2B4, symBinAddr: 0x4803C, symSize: 0x94 }
  - { offset: 0x183A8F, size: 0x8, addend: 0x0, symName: _ggml_backend_buffer_get_usage, symObjAddr: 0x348, symBinAddr: 0x480D0, symSize: 0x8 }
  - { offset: 0x183AA3, size: 0x8, addend: 0x0, symName: _ggml_backend_buffer_get_usage, symObjAddr: 0x348, symBinAddr: 0x480D0, symSize: 0x8 }
  - { offset: 0x183ACE, size: 0x8, addend: 0x0, symName: _ggml_backend_buffer_reset, symObjAddr: 0x350, symBinAddr: 0x480D8, symSize: 0x10 }
  - { offset: 0x183AFF, size: 0x8, addend: 0x0, symName: _ggml_backend_buffer_copy_tensor, symObjAddr: 0x360, symBinAddr: 0x480E8, symSize: 0x2C }
  - { offset: 0x183B3E, size: 0x8, addend: 0x0, symName: _ggml_backend_guid, symObjAddr: 0x38C, symBinAddr: 0x48114, symSize: 0xC }
  - { offset: 0x183B69, size: 0x8, addend: 0x0, symName: _ggml_backend_name, symObjAddr: 0x398, symBinAddr: 0x48120, symSize: 0x18 }
  - { offset: 0x183B94, size: 0x8, addend: 0x0, symName: _ggml_backend_free, symObjAddr: 0x3B0, symBinAddr: 0x48138, symSize: 0x10 }
  - { offset: 0x183BE0, size: 0x8, addend: 0x0, symName: _ggml_backend_get_default_buffer_type, symObjAddr: 0x3C0, symBinAddr: 0x48148, symSize: 0xC }
  - { offset: 0x183C29, size: 0x8, addend: 0x0, symName: _ggml_backend_dev_buffer_type, symObjAddr: 0x3CC, symBinAddr: 0x48154, symSize: 0x8 }
  - { offset: 0x183C98, size: 0x8, addend: 0x0, symName: _ggml_backend_alloc_buffer, symObjAddr: 0x3D4, symBinAddr: 0x4815C, symSize: 0x68 }
  - { offset: 0x183D8B, size: 0x8, addend: 0x0, symName: _ggml_backend_get_alignment, symObjAddr: 0x43C, symBinAddr: 0x481C4, symSize: 0x20 }
  - { offset: 0x183E2A, size: 0x8, addend: 0x0, symName: _ggml_backend_get_max_size, symObjAddr: 0x45C, symBinAddr: 0x481E4, symSize: 0x30 }
  - { offset: 0x183EC9, size: 0x8, addend: 0x0, symName: _ggml_backend_tensor_set_async, symObjAddr: 0x48C, symBinAddr: 0x48214, symSize: 0xEC }
  - { offset: 0x183F72, size: 0x8, addend: 0x0, symName: _ggml_backend_tensor_set, symObjAddr: 0x578, symBinAddr: 0x48300, symSize: 0x138 }
  - { offset: 0x183F86, size: 0x8, addend: 0x0, symName: _ggml_backend_tensor_set, symObjAddr: 0x578, symBinAddr: 0x48300, symSize: 0x138 }
  - { offset: 0x18405D, size: 0x8, addend: 0x0, symName: _ggml_backend_tensor_get_async, symObjAddr: 0x6B0, symBinAddr: 0x48438, symSize: 0xEC }
  - { offset: 0x184071, size: 0x8, addend: 0x0, symName: _ggml_backend_tensor_get_async, symObjAddr: 0x6B0, symBinAddr: 0x48438, symSize: 0xEC }
  - { offset: 0x18411A, size: 0x8, addend: 0x0, symName: _ggml_backend_tensor_get, symObjAddr: 0x79C, symBinAddr: 0x48524, symSize: 0x138 }
  - { offset: 0x18412E, size: 0x8, addend: 0x0, symName: _ggml_backend_tensor_get, symObjAddr: 0x79C, symBinAddr: 0x48524, symSize: 0x138 }
  - { offset: 0x184205, size: 0x8, addend: 0x0, symName: _ggml_backend_tensor_memset, symObjAddr: 0x8D4, symBinAddr: 0x4865C, symSize: 0x138 }
  - { offset: 0x184219, size: 0x8, addend: 0x0, symName: _ggml_backend_tensor_memset, symObjAddr: 0x8D4, symBinAddr: 0x4865C, symSize: 0x138 }
  - { offset: 0x1842F0, size: 0x8, addend: 0x0, symName: _ggml_backend_synchronize, symObjAddr: 0xA0C, symBinAddr: 0x48794, symSize: 0x10 }
  - { offset: 0x184304, size: 0x8, addend: 0x0, symName: _ggml_backend_synchronize, symObjAddr: 0xA0C, symBinAddr: 0x48794, symSize: 0x10 }
  - { offset: 0x18432D, size: 0x8, addend: 0x0, symName: _ggml_backend_graph_plan_create, symObjAddr: 0xA1C, symBinAddr: 0x487A4, symSize: 0x44 }
  - { offset: 0x18437A, size: 0x8, addend: 0x0, symName: _ggml_backend_graph_plan_free, symObjAddr: 0xA60, symBinAddr: 0x487E8, symSize: 0x44 }
  - { offset: 0x18438E, size: 0x8, addend: 0x0, symName: _ggml_backend_graph_plan_free, symObjAddr: 0xA60, symBinAddr: 0x487E8, symSize: 0x44 }
  - { offset: 0x1843D7, size: 0x8, addend: 0x0, symName: _ggml_backend_graph_plan_compute, symObjAddr: 0xAA4, symBinAddr: 0x4882C, symSize: 0x44 }
  - { offset: 0x1843EB, size: 0x8, addend: 0x0, symName: _ggml_backend_graph_plan_compute, symObjAddr: 0xAA4, symBinAddr: 0x4882C, symSize: 0x44 }
  - { offset: 0x184438, size: 0x8, addend: 0x0, symName: _ggml_backend_graph_compute, symObjAddr: 0xAE8, symBinAddr: 0x48870, symSize: 0x3C }
  - { offset: 0x18448A, size: 0x8, addend: 0x0, symName: _ggml_backend_graph_compute, symObjAddr: 0xAE8, symBinAddr: 0x48870, symSize: 0x3C }
  - { offset: 0x184536, size: 0x8, addend: 0x0, symName: _ggml_backend_graph_compute_async, symObjAddr: 0xB24, symBinAddr: 0x488AC, symSize: 0x8 }
  - { offset: 0x18459F, size: 0x8, addend: 0x0, symName: _ggml_backend_supports_op, symObjAddr: 0xB2C, symBinAddr: 0x488B4, symSize: 0xC }
  - { offset: 0x184602, size: 0x8, addend: 0x0, symName: _ggml_backend_dev_supports_op, symObjAddr: 0xB38, symBinAddr: 0x488C0, symSize: 0x8 }
  - { offset: 0x18466B, size: 0x8, addend: 0x0, symName: _ggml_backend_supports_buft, symObjAddr: 0xB40, symBinAddr: 0x488C8, symSize: 0xC }
  - { offset: 0x1846CE, size: 0x8, addend: 0x0, symName: _ggml_backend_dev_supports_buft, symObjAddr: 0xB4C, symBinAddr: 0x488D4, symSize: 0x8 }
  - { offset: 0x184737, size: 0x8, addend: 0x0, symName: _ggml_backend_offload_op, symObjAddr: 0xB54, symBinAddr: 0x488DC, symSize: 0x18 }
  - { offset: 0x184789, size: 0x8, addend: 0x0, symName: _ggml_backend_dev_offload_op, symObjAddr: 0xB6C, symBinAddr: 0x488F4, symSize: 0x14 }
  - { offset: 0x1847BC, size: 0x8, addend: 0x0, symName: _ggml_backend_get_device, symObjAddr: 0xB80, symBinAddr: 0x48908, symSize: 0x8 }
  - { offset: 0x18485F, size: 0x8, addend: 0x0, symName: _ggml_backend_tensor_copy, symObjAddr: 0xB88, symBinAddr: 0x48910, symSize: 0x1F8 }
  - { offset: 0x184B0B, size: 0x8, addend: 0x0, symName: _ggml_backend_tensor_copy_async, symObjAddr: 0xD80, symBinAddr: 0x48B08, symSize: 0x150 }
  - { offset: 0x184B3E, size: 0x8, addend: 0x0, symName: _ggml_backend_tensor_copy_async, symObjAddr: 0xD80, symBinAddr: 0x48B08, symSize: 0x150 }
  - { offset: 0x184C7E, size: 0x8, addend: 0x0, symName: _ggml_backend_event_new, symObjAddr: 0xED0, symBinAddr: 0x48C58, symSize: 0x18 }
  - { offset: 0x184C92, size: 0x8, addend: 0x0, symName: _ggml_backend_event_new, symObjAddr: 0xED0, symBinAddr: 0x48C58, symSize: 0x18 }
  - { offset: 0x184CBD, size: 0x8, addend: 0x0, symName: _ggml_backend_event_free, symObjAddr: 0xEE8, symBinAddr: 0x48C70, symSize: 0x18 }
  - { offset: 0x184CE8, size: 0x8, addend: 0x0, symName: _ggml_backend_event_record, symObjAddr: 0xF00, symBinAddr: 0x48C88, symSize: 0x50 }
  - { offset: 0x184D20, size: 0x8, addend: 0x0, symName: _ggml_backend_event_synchronize, symObjAddr: 0xF50, symBinAddr: 0x48CD8, symSize: 0x4C }
  - { offset: 0x184D34, size: 0x8, addend: 0x0, symName: _ggml_backend_event_synchronize, symObjAddr: 0xF50, symBinAddr: 0x48CD8, symSize: 0x4C }
  - { offset: 0x184D62, size: 0x8, addend: 0x0, symName: _ggml_backend_event_wait, symObjAddr: 0xF9C, symBinAddr: 0x48D24, symSize: 0x44 }
  - { offset: 0x184D76, size: 0x8, addend: 0x0, symName: _ggml_backend_event_wait, symObjAddr: 0xF9C, symBinAddr: 0x48D24, symSize: 0x44 }
  - { offset: 0x184DAE, size: 0x8, addend: 0x0, symName: _ggml_backend_dev_name, symObjAddr: 0xFE0, symBinAddr: 0x48D68, symSize: 0x8 }
  - { offset: 0x184DC2, size: 0x8, addend: 0x0, symName: _ggml_backend_dev_name, symObjAddr: 0xFE0, symBinAddr: 0x48D68, symSize: 0x8 }
  - { offset: 0x184E02, size: 0x8, addend: 0x0, symName: _ggml_backend_dev_description, symObjAddr: 0xFE8, symBinAddr: 0x48D70, symSize: 0x8 }
  - { offset: 0x184E42, size: 0x8, addend: 0x0, symName: _ggml_backend_dev_memory, symObjAddr: 0xFF0, symBinAddr: 0x48D78, symSize: 0x8 }
  - { offset: 0x184EAC, size: 0x8, addend: 0x0, symName: _ggml_backend_dev_type, symObjAddr: 0xFF8, symBinAddr: 0x48D80, symSize: 0x8 }
  - { offset: 0x184EDE, size: 0x8, addend: 0x0, symName: _ggml_backend_dev_get_props, symObjAddr: 0x1000, symBinAddr: 0x48D88, symSize: 0x14 }
  - { offset: 0x184F31, size: 0x8, addend: 0x0, symName: _ggml_backend_dev_backend_reg, symObjAddr: 0x1014, symBinAddr: 0x48D9C, symSize: 0x8 }
  - { offset: 0x184F5E, size: 0x8, addend: 0x0, symName: _ggml_backend_dev_init, symObjAddr: 0x101C, symBinAddr: 0x48DA4, symSize: 0x8 }
  - { offset: 0x184FB5, size: 0x8, addend: 0x0, symName: _ggml_backend_dev_host_buffer_type, symObjAddr: 0x1024, symBinAddr: 0x48DAC, symSize: 0x14 }
  - { offset: 0x184FEE, size: 0x8, addend: 0x0, symName: _ggml_backend_dev_buffer_from_host_ptr, symObjAddr: 0x1038, symBinAddr: 0x48DC0, symSize: 0x8 }
  - { offset: 0x185073, size: 0x8, addend: 0x0, symName: _ggml_backend_reg_name, symObjAddr: 0x1040, symBinAddr: 0x48DC8, symSize: 0x8 }
  - { offset: 0x1850B3, size: 0x8, addend: 0x0, symName: _ggml_backend_reg_dev_count, symObjAddr: 0x1048, symBinAddr: 0x48DD0, symSize: 0x8 }
  - { offset: 0x1850F3, size: 0x8, addend: 0x0, symName: _ggml_backend_reg_dev_get, symObjAddr: 0x1050, symBinAddr: 0x48DD8, symSize: 0x8 }
  - { offset: 0x18514A, size: 0x8, addend: 0x0, symName: _ggml_backend_reg_get_proc_address, symObjAddr: 0x1058, symBinAddr: 0x48DE0, symSize: 0x14 }
  - { offset: 0x1851AB, size: 0x8, addend: 0x0, symName: _ggml_backend_multi_buffer_alloc_buffer, symObjAddr: 0x106C, symBinAddr: 0x48DF4, symSize: 0x140 }
  - { offset: 0x1852AD, size: 0x8, addend: 0x0, symName: __ZL37ggml_backend_multi_buffer_free_bufferP19ggml_backend_buffer, symObjAddr: 0x11AC, symBinAddr: 0x48F34, symSize: 0x78 }
  - { offset: 0x1852D6, size: 0x8, addend: 0x0, symName: __ZL37ggml_backend_multi_buffer_free_bufferP19ggml_backend_buffer, symObjAddr: 0x11AC, symBinAddr: 0x48F34, symSize: 0x78 }
  - { offset: 0x185418, size: 0x8, addend: 0x0, symName: _ggml_backend_sched_new, symObjAddr: 0x1224, symBinAddr: 0x48FAC, symSize: 0x484 }
  - { offset: 0x185839, size: 0x8, addend: 0x0, symName: _ggml_backend_sched_reset, symObjAddr: 0x16A8, symBinAddr: 0x49430, symSize: 0x7C }
  - { offset: 0x1858ED, size: 0x8, addend: 0x0, symName: _ggml_backend_sched_reset, symObjAddr: 0x16A8, symBinAddr: 0x49430, symSize: 0x7C }
  - { offset: 0x18593A, size: 0x8, addend: 0x0, symName: _ggml_backend_sched_free, symObjAddr: 0x1724, symBinAddr: 0x494AC, symSize: 0x108 }
  - { offset: 0x185AE2, size: 0x8, addend: 0x0, symName: _ggml_backend_sched_reserve, symObjAddr: 0x182C, symBinAddr: 0x495B4, symSize: 0x110 }
  - { offset: 0x185BD9, size: 0x8, addend: 0x0, symName: __ZL30ggml_backend_sched_split_graphP18ggml_backend_schedP11ggml_cgraph, symObjAddr: 0x193C, symBinAddr: 0x496C4, symSize: 0x20C4 }
  - { offset: 0x185BED, size: 0x8, addend: 0x0, symName: __ZL30ggml_backend_sched_split_graphP18ggml_backend_schedP11ggml_cgraph, symObjAddr: 0x193C, symBinAddr: 0x496C4, symSize: 0x20C4 }
  - { offset: 0x18872F, size: 0x8, addend: 0x0, symName: _ggml_backend_sched_synchronize, symObjAddr: 0x3A00, symBinAddr: 0x4B788, symSize: 0x60 }
  - { offset: 0x189843, size: 0x8, addend: 0x0, symName: __ZL38ggml_backend_sched_backend_id_from_curP18ggml_backend_schedP11ggml_tensor, symObjAddr: 0x5318, symBinAddr: 0x4D0A0, symSize: 0x448 }
  - { offset: 0x189DFB, size: 0x8, addend: 0x0, symName: __ZL35ggml_backend_sched_buffer_supportedP18ggml_backend_schedP11ggml_tensori, symObjAddr: 0x5760, symBinAddr: 0x4D4E8, symSize: 0x15C }
  - { offset: 0x189E0F, size: 0x8, addend: 0x0, symName: __ZL35ggml_backend_sched_buffer_supportedP18ggml_backend_schedP11ggml_tensori, symObjAddr: 0x5760, symBinAddr: 0x4D4E8, symSize: 0x15C }
  - { offset: 0x18A117, size: 0x8, addend: 0x0, symName: _ggml_backend_sched_synchronize, symObjAddr: 0x3A00, symBinAddr: 0x4B788, symSize: 0x60 }
  - { offset: 0x18A1C6, size: 0x8, addend: 0x0, symName: _ggml_backend_sched_alloc_graph, symObjAddr: 0x3A60, symBinAddr: 0x4B7E8, symSize: 0x1A8 }
  - { offset: 0x18A324, size: 0x8, addend: 0x0, symName: _ggml_backend_sched_graph_compute, symObjAddr: 0x3C08, symBinAddr: 0x4B990, symSize: 0x6C }
  - { offset: 0x18A34F, size: 0x8, addend: 0x0, symName: _ggml_backend_sched_graph_compute, symObjAddr: 0x3C08, symBinAddr: 0x4B990, symSize: 0x6C }
  - { offset: 0x18A420, size: 0x8, addend: 0x0, symName: _ggml_backend_sched_graph_compute_async, symObjAddr: 0x3C74, symBinAddr: 0x4B9FC, symSize: 0x544 }
  - { offset: 0x18AA5D, size: 0x8, addend: 0x0, symName: _ggml_backend_sched_set_eval_callback, symObjAddr: 0x41B8, symBinAddr: 0x4BF40, symSize: 0xC }
  - { offset: 0x18ABD2, size: 0x8, addend: 0x0, symName: _ggml_backend_sched_set_eval_callback, symObjAddr: 0x41B8, symBinAddr: 0x4BF40, symSize: 0xC }
  - { offset: 0x18AC17, size: 0x8, addend: 0x0, symName: _ggml_backend_sched_get_n_splits, symObjAddr: 0x41C4, symBinAddr: 0x4BF4C, symSize: 0x8 }
  - { offset: 0x18AC44, size: 0x8, addend: 0x0, symName: _ggml_backend_sched_get_n_copies, symObjAddr: 0x41CC, symBinAddr: 0x4BF54, symSize: 0x8 }
  - { offset: 0x18AC71, size: 0x8, addend: 0x0, symName: _ggml_backend_sched_get_n_backends, symObjAddr: 0x41D4, symBinAddr: 0x4BF5C, symSize: 0x8 }
  - { offset: 0x18AC9E, size: 0x8, addend: 0x0, symName: _ggml_backend_sched_get_backend, symObjAddr: 0x41DC, symBinAddr: 0x4BF64, symSize: 0x54 }
  - { offset: 0x18ACDF, size: 0x8, addend: 0x0, symName: _ggml_backend_sched_get_buffer_size, symObjAddr: 0x4230, symBinAddr: 0x4BFB8, symSize: 0x7C }
  - { offset: 0x18AD2E, size: 0x8, addend: 0x0, symName: _ggml_backend_sched_get_buffer_size, symObjAddr: 0x4230, symBinAddr: 0x4BFB8, symSize: 0x7C }
  - { offset: 0x18ADFB, size: 0x8, addend: 0x0, symName: _ggml_backend_sched_set_tensor_backend, symObjAddr: 0x42AC, symBinAddr: 0x4C034, symSize: 0xF8 }
  - { offset: 0x18AF71, size: 0x8, addend: 0x0, symName: _ggml_backend_sched_get_tensor_backend, symObjAddr: 0x43A4, symBinAddr: 0x4C12C, symSize: 0xAC }
  - { offset: 0x18B08B, size: 0x8, addend: 0x0, symName: _ggml_backend_view_init, symObjAddr: 0x4450, symBinAddr: 0x4C1D8, symSize: 0xF4 }
  - { offset: 0x18B133, size: 0x8, addend: 0x0, symName: _ggml_backend_tensor_alloc, symObjAddr: 0x4544, symBinAddr: 0x4C2CC, symSize: 0x1E0 }
  - { offset: 0x18B190, size: 0x8, addend: 0x0, symName: _ggml_backend_tensor_alloc, symObjAddr: 0x4544, symBinAddr: 0x4C2CC, symSize: 0x1E0 }
  - { offset: 0x18B3B6, size: 0x8, addend: 0x0, symName: _ggml_backend_graph_copy, symObjAddr: 0x4724, symBinAddr: 0x4C4AC, symSize: 0x284 }
  - { offset: 0x18B415, size: 0x8, addend: 0x0, symName: _ggml_backend_graph_copy, symObjAddr: 0x4724, symBinAddr: 0x4C4AC, symSize: 0x284 }
  - { offset: 0x18B822, size: 0x8, addend: 0x0, symName: __ZL21graph_copy_dup_tensor13ggml_hash_setPP11ggml_tensorP12ggml_contextS4_S1_, symObjAddr: 0x49A8, symBinAddr: 0x4C730, symSize: 0x400 }
  - { offset: 0x18BC6D, size: 0x8, addend: 0x0, symName: __ZL22graph_copy_init_tensorP13ggml_hash_setPP11ggml_tensorPbS2_, symObjAddr: 0x4DA8, symBinAddr: 0x4CB30, symSize: 0x1F0 }
  - { offset: 0x18BCA3, size: 0x8, addend: 0x0, symName: __ZL22graph_copy_init_tensorP13ggml_hash_setPP11ggml_tensorPbS2_, symObjAddr: 0x4DA8, symBinAddr: 0x4CB30, symSize: 0x1F0 }
  - { offset: 0x18BF80, size: 0x8, addend: 0x0, symName: _ggml_backend_graph_copy_free, symObjAddr: 0x4F98, symBinAddr: 0x4CD20, symSize: 0x48 }
  - { offset: 0x18C009, size: 0x8, addend: 0x0, symName: _ggml_backend_graph_copy_free, symObjAddr: 0x4F98, symBinAddr: 0x4CD20, symSize: 0x48 }
  - { offset: 0x18C101, size: 0x8, addend: 0x0, symName: _ggml_backend_compare_graph_backend, symObjAddr: 0x4FE0, symBinAddr: 0x4CD68, symSize: 0x178 }
  - { offset: 0x18C496, size: 0x8, addend: 0x0, symName: __ZL37ggml_backend_cpu_buffer_type_get_nameP24ggml_backend_buffer_type, symObjAddr: 0x5164, symBinAddr: 0x4CEEC, symSize: 0xC }
  - { offset: 0x18C4C2, size: 0x8, addend: 0x0, symName: __ZL41ggml_backend_cpu_buffer_type_alloc_bufferP24ggml_backend_buffer_typem, symObjAddr: 0x5170, symBinAddr: 0x4CEF8, symSize: 0xA4 }
  - { offset: 0x18C597, size: 0x8, addend: 0x0, symName: __ZL42ggml_backend_cpu_buffer_type_get_alignmentP24ggml_backend_buffer_type, symObjAddr: 0x5214, symBinAddr: 0x4CF9C, symSize: 0x8 }
  - { offset: 0x18C5C3, size: 0x8, addend: 0x0, symName: __ZL36ggml_backend_cpu_buffer_type_is_hostP24ggml_backend_buffer_type, symObjAddr: 0x521C, symBinAddr: 0x4CFA4, symSize: 0x8 }
  - { offset: 0x18C5EF, size: 0x8, addend: 0x0, symName: _ggml_backend_cpu_buffer_from_ptr, symObjAddr: 0x5224, symBinAddr: 0x4CFAC, symSize: 0x8C }
  - { offset: 0x18C675, size: 0x8, addend: 0x0, symName: __ZL31ggml_backend_multi_buffer_clearP19ggml_backend_bufferh, symObjAddr: 0x52B0, symBinAddr: 0x4D038, symSize: 0x68 }
  - { offset: 0x18C6A9, size: 0x8, addend: 0x0, symName: __ZL31ggml_backend_multi_buffer_clearP19ggml_backend_bufferh, symObjAddr: 0x52B0, symBinAddr: 0x4D038, symSize: 0x68 }
  - { offset: 0x18C7E7, size: 0x8, addend: 0x0, symName: __ZL35ggml_backend_cpu_buffer_free_bufferP19ggml_backend_buffer, symObjAddr: 0x58BC, symBinAddr: 0x4D644, symSize: 0xC }
  - { offset: 0x18C835, size: 0x8, addend: 0x0, symName: __ZL32ggml_backend_cpu_buffer_get_baseP19ggml_backend_buffer, symObjAddr: 0x58C8, symBinAddr: 0x4D650, symSize: 0x18 }
  - { offset: 0x18C877, size: 0x8, addend: 0x0, symName: __ZL37ggml_backend_cpu_buffer_memset_tensorP19ggml_backend_bufferP11ggml_tensorhmm, symObjAddr: 0x58E0, symBinAddr: 0x4D668, symSize: 0x14 }
  - { offset: 0x18C8E1, size: 0x8, addend: 0x0, symName: __ZL34ggml_backend_cpu_buffer_set_tensorP19ggml_backend_bufferP11ggml_tensorPKvmm, symObjAddr: 0x58F4, symBinAddr: 0x4D67C, symSize: 0x14 }
  - { offset: 0x18C94B, size: 0x8, addend: 0x0, symName: __ZL34ggml_backend_cpu_buffer_get_tensorP19ggml_backend_bufferPK11ggml_tensorPvmm, symObjAddr: 0x5908, symBinAddr: 0x4D690, symSize: 0x14 }
  - { offset: 0x18C9B5, size: 0x8, addend: 0x0, symName: __ZL34ggml_backend_cpu_buffer_cpy_tensorP19ggml_backend_bufferPK11ggml_tensorPS1_, symObjAddr: 0x591C, symBinAddr: 0x4D6A4, symSize: 0x78 }
  - { offset: 0x18CA82, size: 0x8, addend: 0x0, symName: __ZL29ggml_backend_cpu_buffer_clearP19ggml_backend_bufferh, symObjAddr: 0x5994, symBinAddr: 0x4D71C, symSize: 0xC }
  - { offset: 0x18CABE, size: 0x8, addend: 0x0, symName: __ZL46ggml_backend_cpu_buffer_from_ptr_type_get_nameP24ggml_backend_buffer_type, symObjAddr: 0x59A0, symBinAddr: 0x4D728, symSize: 0xC }
  - { offset: 0x18E98B, size: 0x8, addend: 0x0, symName: _ggml_opt_dataset_init, symObjAddr: 0x0, symBinAddr: 0x4D734, symSize: 0x234 }
  - { offset: 0x196FFD, size: 0x8, addend: 0x0, symName: __ZNSt3__124uniform_int_distributionIlEclINS_23mersenne_twister_engineIjLm32ELm624ELm397ELm31ELj2567483615ELm11ELj4294967295ELm7ELj2636928640ELm15ELj4022730752ELm18ELj1812433253EEEEElRT_RKNS1_10param_typeE, symObjAddr: 0x34A8, symBinAddr: 0x505BC, symSize: 0x1A4 }
  - { offset: 0x19736F, size: 0x8, addend: 0x0, symName: _ggml_opt_dataset_init, symObjAddr: 0x0, symBinAddr: 0x4D734, symSize: 0x234 }
  - { offset: 0x197666, size: 0x8, addend: 0x0, symName: __ZNSt3__16vectorIxNS_9allocatorIxEEE8__appendEm, symObjAddr: 0x32F8, symBinAddr: 0x5040C, symSize: 0x19C }
  - { offset: 0x197B0A, size: 0x8, addend: 0x0, symName: __ZNKSt3__16vectorIxNS_9allocatorIxEEE20__throw_length_errorB8ne180100Ev, symObjAddr: 0x3494, symBinAddr: 0x505A8, symSize: 0x14 }
  - { offset: 0x197C5F, size: 0x8, addend: 0x0, symName: _ggml_opt_dataset_free, symObjAddr: 0x234, symBinAddr: 0x4D968, symSize: 0x40 }
  - { offset: 0x197E36, size: 0x8, addend: 0x0, symName: _ggml_opt_dataset_data, symObjAddr: 0x274, symBinAddr: 0x4D9A8, symSize: 0x8 }
  - { offset: 0x197E55, size: 0x8, addend: 0x0, symName: _ggml_opt_dataset_labels, symObjAddr: 0x27C, symBinAddr: 0x4D9B0, symSize: 0x8 }
  - { offset: 0x19804B, size: 0x8, addend: 0x0, symName: _ggml_opt_dataset_shuffle, symObjAddr: 0x284, symBinAddr: 0x4D9B8, symSize: 0x178 }
  - { offset: 0x1986F8, size: 0x8, addend: 0x0, symName: _ggml_opt_dataset_get_batch, symObjAddr: 0x3FC, symBinAddr: 0x4DB30, symSize: 0x240 }
  - { offset: 0x19874C, size: 0x8, addend: 0x0, symName: _ggml_opt_dataset_get_batch, symObjAddr: 0x3FC, symBinAddr: 0x4DB30, symSize: 0x240 }
  - { offset: 0x198971, size: 0x8, addend: 0x0, symName: _ggml_opt_get_default_optimizer_params, symObjAddr: 0x63C, symBinAddr: 0x4DD70, symSize: 0x14 }
  - { offset: 0x1989B4, size: 0x8, addend: 0x0, symName: _ggml_opt_get_default_optimizer_params, symObjAddr: 0x63C, symBinAddr: 0x4DD70, symSize: 0x14 }
  - { offset: 0x1989E9, size: 0x8, addend: 0x0, symName: _ggml_opt_default_params, symObjAddr: 0x650, symBinAddr: 0x4DD84, symSize: 0x28 }
  - { offset: 0x198D1D, size: 0x8, addend: 0x0, symName: _ggml_opt_init, symObjAddr: 0x678, symBinAddr: 0x4DDAC, symSize: 0x6B8 }
  - { offset: 0x199432, size: 0x8, addend: 0x0, symName: _ggml_opt_free, symObjAddr: 0xD30, symBinAddr: 0x4E464, symSize: 0x48 }
  - { offset: 0x19967D, size: 0x8, addend: 0x0, symName: _ggml_opt_free, symObjAddr: 0xD30, symBinAddr: 0x4E464, symSize: 0x48 }
  - { offset: 0x1996D4, size: 0x8, addend: 0x0, symName: _ggml_opt_reset, symObjAddr: 0xD78, symBinAddr: 0x4E4AC, symSize: 0x40 }
  - { offset: 0x199719, size: 0x8, addend: 0x0, symName: _ggml_opt_inputs, symObjAddr: 0xDB8, symBinAddr: 0x4E4EC, symSize: 0x8 }
  - { offset: 0x199738, size: 0x8, addend: 0x0, symName: _ggml_opt_outputs, symObjAddr: 0xDC0, symBinAddr: 0x4E4F4, symSize: 0x8 }
  - { offset: 0x199765, size: 0x8, addend: 0x0, symName: _ggml_opt_labels, symObjAddr: 0xDC8, symBinAddr: 0x4E4FC, symSize: 0x8 }
  - { offset: 0x199792, size: 0x8, addend: 0x0, symName: _ggml_opt_loss, symObjAddr: 0xDD0, symBinAddr: 0x4E504, symSize: 0x8 }
  - { offset: 0x1997BF, size: 0x8, addend: 0x0, symName: _ggml_opt_pred, symObjAddr: 0xDD8, symBinAddr: 0x4E50C, symSize: 0x8 }
  - { offset: 0x1997EC, size: 0x8, addend: 0x0, symName: _ggml_opt_ncorrect, symObjAddr: 0xDE0, symBinAddr: 0x4E514, symSize: 0x8 }
  - { offset: 0x199819, size: 0x8, addend: 0x0, symName: _ggml_opt_grad_acc, symObjAddr: 0xDE8, symBinAddr: 0x4E51C, symSize: 0x8 }
  - { offset: 0x19996A, size: 0x8, addend: 0x0, symName: _ggml_opt_result_init, symObjAddr: 0xDF0, symBinAddr: 0x4E524, symSize: 0x30 }
  - { offset: 0x199C21, size: 0x8, addend: 0x0, symName: _ggml_opt_result_free, symObjAddr: 0xE20, symBinAddr: 0x4E554, symSize: 0x48 }
  - { offset: 0x199F71, size: 0x8, addend: 0x0, symName: _ggml_opt_result_reset, symObjAddr: 0xE68, symBinAddr: 0x4E59C, symSize: 0x1C }
  - { offset: 0x19A0A6, size: 0x8, addend: 0x0, symName: _ggml_opt_result_ndata, symObjAddr: 0xE84, symBinAddr: 0x4E5B8, symSize: 0xC }
  - { offset: 0x19A0DC, size: 0x8, addend: 0x0, symName: _ggml_opt_result_loss, symObjAddr: 0xE90, symBinAddr: 0x4E5C4, symSize: 0x214 }
  - { offset: 0x19A13E, size: 0x8, addend: 0x0, symName: _ggml_opt_result_loss, symObjAddr: 0xE90, symBinAddr: 0x4E5C4, symSize: 0x214 }
  - { offset: 0x19A19B, size: 0x8, addend: 0x0, symName: _ggml_opt_result_pred, symObjAddr: 0x10A4, symBinAddr: 0x4E7D8, symSize: 0x84 }
  - { offset: 0x19A1F1, size: 0x8, addend: 0x0, symName: _ggml_opt_result_accuracy, symObjAddr: 0x1128, symBinAddr: 0x4E85C, symSize: 0x6C }
  - { offset: 0x19A21E, size: 0x8, addend: 0x0, symName: _ggml_opt_forward, symObjAddr: 0x1194, symBinAddr: 0x4E8C8, symSize: 0xC }
  - { offset: 0x19A264, size: 0x8, addend: 0x0, symName: __ZL19ggml_opt_eval_graphP16ggml_opt_contextP11ggml_cgraphP15ggml_opt_result, symObjAddr: 0x11A0, symBinAddr: 0x4E8D4, symSize: 0x9B4 }
  - { offset: 0x19BDB1, size: 0x8, addend: 0x0, symName: __ZL10map_tensorRNSt3__13mapIP11ggml_tensorS2_NS_4lessIS2_EENS_9allocatorINS_4pairIKS2_S2_EEEEEEP12ggml_contextS2_, symObjAddr: 0x2994, symBinAddr: 0x500C8, symSize: 0x304 }
  - { offset: 0x19C66D, size: 0x8, addend: 0x0, symName: __ZNSt3__16__treeINS_12__value_typeIP11ggml_tensorS3_EENS_19__map_value_compareIS3_S4_NS_4lessIS3_EELb1EEENS_9allocatorIS4_EEE7destroyEPNS_11__tree_nodeIS4_PvEE, symObjAddr: 0x2E74, symBinAddr: 0x503CC, symSize: 0x40 }
  - { offset: 0x19CFE5, size: 0x8, addend: 0x0, symName: __ZNSt3__16vectorIxNS_9allocatorIxEEE8__appendEm, symObjAddr: 0x32F8, symBinAddr: 0x5040C, symSize: 0x19C }
  - { offset: 0x19D06B, size: 0x8, addend: 0x0, symName: _ggml_opt_forward_backward, symObjAddr: 0x1B54, symBinAddr: 0x4F288, symSize: 0x88 }
  - { offset: 0x19D1A5, size: 0x8, addend: 0x0, symName: _ggml_opt_epoch, symObjAddr: 0x1BDC, symBinAddr: 0x4F310, symSize: 0x374 }
  - { offset: 0x19D60C, size: 0x8, addend: 0x0, symName: _ggml_opt_epoch_callback_progress_bar, symObjAddr: 0x1F50, symBinAddr: 0x4F684, symSize: 0x498 }
  - { offset: 0x19D728, size: 0x8, addend: 0x0, symName: _ggml_opt_epoch_callback_progress_bar, symObjAddr: 0x1F50, symBinAddr: 0x4F684, symSize: 0x498 }
  - { offset: 0x19DC6A, size: 0x8, addend: 0x0, symName: _ggml_opt_fit, symObjAddr: 0x23E8, symBinAddr: 0x4FB1C, symSize: 0x5AC }
  - { offset: 0x19EC65, size: 0x8, addend: 0x0, symName: __ZL10map_tensorRNSt3__13mapIP11ggml_tensorS2_NS_4lessIS2_EENS_9allocatorINS_4pairIKS2_S2_EEEEEEP12ggml_contextS2_, symObjAddr: 0x2994, symBinAddr: 0x500C8, symSize: 0x304 }
  - { offset: 0x19FBA5, size: 0x8, addend: 0x0, symName: __ZNKSt3__16vectorIxNS_9allocatorIxEEE20__throw_length_errorB8ne180100Ev, symObjAddr: 0x3494, symBinAddr: 0x505A8, symSize: 0x14 }
  - { offset: 0x19FBCF, size: 0x8, addend: 0x0, symName: __ZNSt3__124uniform_int_distributionIlEclINS_23mersenne_twister_engineIjLm32ELm624ELm397ELm31ELj2567483615ELm11ELj4294967295ELm7ELj2636928640ELm15ELj4022730752ELm18ELj1812433253EEEEElRT_RKNS1_10param_typeE, symObjAddr: 0x34A8, symBinAddr: 0x505BC, symSize: 0x1A4 }
  - { offset: 0x19FC8A, size: 0x8, addend: 0x0, symName: __ZNSt3__125__independent_bits_engineINS_23mersenne_twister_engineIjLm32ELm624ELm397ELm31ELj2567483615ELm11ELj4294967295ELm7ELj2636928640ELm15ELj4022730752ELm18ELj1812433253EEEmE6__evalENS_17integral_constantIbLb1EEE, symObjAddr: 0x364C, symBinAddr: 0x50760, symSize: 0x330 }
  - { offset: 0x1A1C7A, size: 0x8, addend: 0x0, symName: _quantize_row_q4_0_ref, symObjAddr: 0x0, symBinAddr: 0x50A90, symSize: 0x368 }
  - { offset: 0x1A1C88, size: 0x8, addend: 0x0, symName: _quantize_row_q4_0_ref, symObjAddr: 0x0, symBinAddr: 0x50A90, symSize: 0x368 }
  - { offset: 0x1A1E0B, size: 0x8, addend: 0x0, symName: _quantize_row_q5_0_ref, symObjAddr: 0x6FC, symBinAddr: 0x5118C, symSize: 0x45C }
  - { offset: 0x1A1F98, size: 0x8, addend: 0x0, symName: _dequantize_row_q4_0, symObjAddr: 0x1590, symBinAddr: 0x52020, symSize: 0x114 }
  - { offset: 0x1A20A0, size: 0x8, addend: 0x0, symName: _dequantize_row_q4_1, symObjAddr: 0x16A4, symBinAddr: 0x52134, symSize: 0x118 }
  - { offset: 0x1A21DD, size: 0x8, addend: 0x0, symName: _dequantize_row_q5_0, symObjAddr: 0x17BC, symBinAddr: 0x5224C, symSize: 0x1B8 }
  - { offset: 0x1A230F, size: 0x8, addend: 0x0, symName: _dequantize_row_q5_1, symObjAddr: 0x1974, symBinAddr: 0x52404, symSize: 0x1C0 }
  - { offset: 0x1A2470, size: 0x8, addend: 0x0, symName: _dequantize_row_q8_0, symObjAddr: 0x1B34, symBinAddr: 0x525C4, symSize: 0x100 }
  - { offset: 0x1A2553, size: 0x8, addend: 0x0, symName: _iq2xs_init_impl, symObjAddr: 0x231CC, symBinAddr: 0x73C5C, symSize: 0xA44 }
  - { offset: 0x1A2577, size: 0x8, addend: 0x0, symName: _iq2xs_init_impl.kgrid_2bit_256, symObjAddr: 0x3CEF0, symBinAddr: 0x105A78, symSize: 0x0 }
  - { offset: 0x1A258E, size: 0x8, addend: 0x0, symName: _iq2xs_init_impl.kgrid_2bit_512, symObjAddr: 0x3D0F0, symBinAddr: 0x105C78, symSize: 0x0 }
  - { offset: 0x1A25A5, size: 0x8, addend: 0x0, symName: _iq2xs_init_impl.kgrid_1bit_2048, symObjAddr: 0x3D4F0, symBinAddr: 0x106078, symSize: 0x0 }
  - { offset: 0x1A25BC, size: 0x8, addend: 0x0, symName: _iq2xs_init_impl.kgrid_2bit_1024, symObjAddr: 0x3E4F0, symBinAddr: 0x107078, symSize: 0x0 }
  - { offset: 0x1A2AF5, size: 0x8, addend: 0x0, symName: _iq2_compare_func, symObjAddr: 0x23C10, symBinAddr: 0x746A0, symSize: 0x40 }
  - { offset: 0x1A2B6C, size: 0x8, addend: 0x0, symName: _iq3xs_init_impl, symObjAddr: 0x28138, symBinAddr: 0x78BC8, symSize: 0x98C }
  - { offset: 0x1A2B90, size: 0x8, addend: 0x0, symName: _iq3xs_init_impl.kgrid_256, symObjAddr: 0x3ECF0, symBinAddr: 0x107878, symSize: 0x0 }
  - { offset: 0x1A2BA7, size: 0x8, addend: 0x0, symName: _iq3xs_init_impl.kgrid_512, symObjAddr: 0x3EEF0, symBinAddr: 0x107A78, symSize: 0x0 }
  - { offset: 0x1A30AB, size: 0x8, addend: 0x0, symName: _iq3_compare_func, symObjAddr: 0x28AC4, symBinAddr: 0x79554, symSize: 0x40 }
  - { offset: 0x1A30D2, size: 0x8, addend: 0x0, symName: _iq2xxs_grid, symObjAddr: 0x34A60, symBinAddr: 0xFD5E8, symSize: 0x0 }
  - { offset: 0x1A3111, size: 0x8, addend: 0x0, symName: _ksigns_iq2xs, symObjAddr: 0x35260, symBinAddr: 0xFDDE8, symSize: 0x0 }
  - { offset: 0x1A314F, size: 0x8, addend: 0x0, symName: _iq2xs_grid, symObjAddr: 0x352E0, symBinAddr: 0xFDE68, symSize: 0x0 }
  - { offset: 0x1A3175, size: 0x8, addend: 0x0, symName: _iq2s_grid, symObjAddr: 0x362E0, symBinAddr: 0xFEE68, symSize: 0x0 }
  - { offset: 0x1A319B, size: 0x8, addend: 0x0, symName: _iq3xxs_grid, symObjAddr: 0x382E0, symBinAddr: 0x100E68, symSize: 0x0 }
  - { offset: 0x1A31DA, size: 0x8, addend: 0x0, symName: _iq3s_grid, symObjAddr: 0x386E0, symBinAddr: 0x101268, symSize: 0x0 }
  - { offset: 0x1A3200, size: 0x8, addend: 0x0, symName: _iq1s_grid, symObjAddr: 0x38EE0, symBinAddr: 0x101A68, symSize: 0x0 }
  - { offset: 0x1A3226, size: 0x8, addend: 0x0, symName: _kvalues_iq4nl, symObjAddr: 0x3CEE0, symBinAddr: 0x105A68, symSize: 0x0 }
  - { offset: 0x1A3264, size: 0x8, addend: 0x0, symName: _iq2_data, symObjAddr: 0xE13C8, symBinAddr: 0x1905B0, symSize: 0x0 }
  - { offset: 0x1A32D9, size: 0x8, addend: 0x0, symName: _iq3_data, symObjAddr: 0xE1428, symBinAddr: 0x190610, symSize: 0x0 }
  - { offset: 0x1A3E0B, size: 0x8, addend: 0x0, symName: _quantize_row_q4_1_ref, symObjAddr: 0x368, symBinAddr: 0x50DF8, symSize: 0x394 }
  - { offset: 0x1A3FA1, size: 0x8, addend: 0x0, symName: _quantize_row_q5_1_ref, symObjAddr: 0xB58, symBinAddr: 0x515E8, symSize: 0x468 }
  - { offset: 0x1A4144, size: 0x8, addend: 0x0, symName: _quantize_row_q8_0_ref, symObjAddr: 0xFC0, symBinAddr: 0x51A50, symSize: 0x2CC }
  - { offset: 0x1A4272, size: 0x8, addend: 0x0, symName: _quantize_row_q8_1_ref, symObjAddr: 0x128C, symBinAddr: 0x51D1C, symSize: 0x304 }
  - { offset: 0x1A469E, size: 0x8, addend: 0x0, symName: _quantize_row_q2_K_ref, symObjAddr: 0x1C34, symBinAddr: 0x526C4, symSize: 0xB58 }
  - { offset: 0x1A4C03, size: 0x8, addend: 0x0, symName: _dequantize_row_q2_K, symObjAddr: 0x278C, symBinAddr: 0x5321C, symSize: 0x490 }
  - { offset: 0x1A540A, size: 0x8, addend: 0x0, symName: _quantize_q2_K, symObjAddr: 0x2C1C, symBinAddr: 0x536AC, symSize: 0x2750 }
  - { offset: 0x1A5FD9, size: 0x8, addend: 0x0, symName: _quantize_row_q3_K_ref, symObjAddr: 0x536C, symBinAddr: 0x55DFC, symSize: 0xC88 }
  - { offset: 0x1A641F, size: 0x8, addend: 0x0, symName: _dequantize_row_q3_K, symObjAddr: 0x5FF4, symBinAddr: 0x56A84, symSize: 0x7C4 }
  - { offset: 0x1A69A5, size: 0x8, addend: 0x0, symName: _quantize_q3_K, symObjAddr: 0x67B8, symBinAddr: 0x57248, symSize: 0x1384 }
  - { offset: 0x1A6FC2, size: 0x8, addend: 0x0, symName: _quantize_row_q4_K_ref, symObjAddr: 0x7B3C, symBinAddr: 0x585CC, symSize: 0x1418 }
  - { offset: 0x1A7503, size: 0x8, addend: 0x0, symName: _dequantize_row_q4_K, symObjAddr: 0x8F54, symBinAddr: 0x599E4, symSize: 0x718 }
  - { offset: 0x1A7961, size: 0x8, addend: 0x0, symName: _quantize_q4_K, symObjAddr: 0x966C, symBinAddr: 0x5A0FC, symSize: 0x2C3C }
  - { offset: 0x1A83B7, size: 0x8, addend: 0x0, symName: _quantize_row_q5_K_ref, symObjAddr: 0xC2A8, symBinAddr: 0x5CD38, symSize: 0x15B8 }
  - { offset: 0x1A8954, size: 0x8, addend: 0x0, symName: _dequantize_row_q5_K, symObjAddr: 0xD860, symBinAddr: 0x5E2F0, symSize: 0x4B8 }
  - { offset: 0x1A8E0B, size: 0x8, addend: 0x0, symName: _quantize_q5_K, symObjAddr: 0xDD18, symBinAddr: 0x5E7A8, symSize: 0x2E44 }
  - { offset: 0x1A9885, size: 0x8, addend: 0x0, symName: _quantize_row_q6_K_ref, symObjAddr: 0x10B5C, symBinAddr: 0x615EC, symSize: 0xBE4 }
  - { offset: 0x1A9CF2, size: 0x8, addend: 0x0, symName: _make_qx_quants, symObjAddr: 0x11740, symBinAddr: 0x621D0, symSize: 0xD1C }
  - { offset: 0x1A9D8F, size: 0x8, addend: 0x0, symName: _make_qx_quants, symObjAddr: 0x11740, symBinAddr: 0x621D0, symSize: 0xD1C }
  - { offset: 0x1A9F0D, size: 0x8, addend: 0x0, symName: _dequantize_row_q6_K, symObjAddr: 0x1245C, symBinAddr: 0x62EEC, symSize: 0x9EC }
  - { offset: 0x1AA209, size: 0x8, addend: 0x0, symName: _quantize_q6_K, symObjAddr: 0x12E48, symBinAddr: 0x638D8, symSize: 0x84F8 }
  - { offset: 0x1AC2B2, size: 0x8, addend: 0x0, symName: _quantize_q4_0, symObjAddr: 0x1B340, symBinAddr: 0x6BDD0, symSize: 0x960 }
  - { offset: 0x1AC70F, size: 0x8, addend: 0x0, symName: _quantize_q4_1, symObjAddr: 0x1BCA0, symBinAddr: 0x6C730, symSize: 0x113C }
  - { offset: 0x1ACC01, size: 0x8, addend: 0x0, symName: _quantize_q5_0, symObjAddr: 0x1CDDC, symBinAddr: 0x6D86C, symSize: 0xA58 }
  - { offset: 0x1AD091, size: 0x8, addend: 0x0, symName: _quantize_q5_1, symObjAddr: 0x1D834, symBinAddr: 0x6E2C4, symSize: 0x1394 }
  - { offset: 0x1AD48A, size: 0x8, addend: 0x0, symName: _quantize_q8_0, symObjAddr: 0x1EBC8, symBinAddr: 0x6F658, symSize: 0x5C }
  - { offset: 0x1AD546, size: 0x8, addend: 0x0, symName: _quantize_row_tq1_0_ref, symObjAddr: 0x1EC24, symBinAddr: 0x6F6B4, symSize: 0x364 }
  - { offset: 0x1AD7F9, size: 0x8, addend: 0x0, symName: _quantize_row_tq2_0_ref, symObjAddr: 0x1EF88, symBinAddr: 0x6FA18, symSize: 0x174 }
  - { offset: 0x1AD98F, size: 0x8, addend: 0x0, symName: _quantize_tq1_0, symObjAddr: 0x1F0FC, symBinAddr: 0x6FB8C, symSize: 0x5C }
  - { offset: 0x1ADA4C, size: 0x8, addend: 0x0, symName: _quantize_tq2_0, symObjAddr: 0x1F158, symBinAddr: 0x6FBE8, symSize: 0x5C }
  - { offset: 0x1ADB09, size: 0x8, addend: 0x0, symName: _dequantize_row_tq1_0, symObjAddr: 0x1F1B4, symBinAddr: 0x6FC44, symSize: 0xD28 }
  - { offset: 0x1ADCFB, size: 0x8, addend: 0x0, symName: _dequantize_row_tq2_0, symObjAddr: 0x1FEDC, symBinAddr: 0x7096C, symSize: 0x4EC }
  - { offset: 0x1ADE34, size: 0x8, addend: 0x0, symName: _dequantize_row_iq2_xxs, symObjAddr: 0x203C8, symBinAddr: 0x70E58, symSize: 0x32C }
  - { offset: 0x1ADFA6, size: 0x8, addend: 0x0, symName: _dequantize_row_iq2_xs, symObjAddr: 0x206F4, symBinAddr: 0x71184, symSize: 0x468 }
  - { offset: 0x1AE0E1, size: 0x8, addend: 0x0, symName: _dequantize_row_iq2_s, symObjAddr: 0x20B5C, symBinAddr: 0x715EC, symSize: 0x458 }
  - { offset: 0x1AE251, size: 0x8, addend: 0x0, symName: _dequantize_row_iq3_xxs, symObjAddr: 0x20FB4, symBinAddr: 0x71A44, symSize: 0x35C }
  - { offset: 0x1AE3D5, size: 0x8, addend: 0x0, symName: _dequantize_row_iq3_s, symObjAddr: 0x21310, symBinAddr: 0x71DA0, symSize: 0x360 }
  - { offset: 0x1AE5D8, size: 0x8, addend: 0x0, symName: _dequantize_row_iq1_s, symObjAddr: 0x21670, symBinAddr: 0x72100, symSize: 0x1B8 }
  - { offset: 0x1AE75E, size: 0x8, addend: 0x0, symName: _dequantize_row_iq1_m, symObjAddr: 0x21828, symBinAddr: 0x722B8, symSize: 0x238 }
  - { offset: 0x1AE988, size: 0x8, addend: 0x0, symName: _dequantize_row_iq4_nl, symObjAddr: 0x21A60, symBinAddr: 0x724F0, symSize: 0x400 }
  - { offset: 0x1AEA69, size: 0x8, addend: 0x0, symName: _dequantize_row_iq4_xs, symObjAddr: 0x21E60, symBinAddr: 0x728F0, symSize: 0x464 }
  - { offset: 0x1AEBA0, size: 0x8, addend: 0x0, symName: _quantize_row_q8_K_ref, symObjAddr: 0x222C4, symBinAddr: 0x72D54, symSize: 0x77C }
  - { offset: 0x1AED2D, size: 0x8, addend: 0x0, symName: _dequantize_row_q8_K, symObjAddr: 0x22A40, symBinAddr: 0x734D0, symSize: 0x78C }
  - { offset: 0x1AEE76, size: 0x8, addend: 0x0, symName: _iq2_compare_func, symObjAddr: 0x23C10, symBinAddr: 0x746A0, symSize: 0x40 }
  - { offset: 0x1AEED2, size: 0x8, addend: 0x0, symName: _iq2xs_free_impl, symObjAddr: 0x23C50, symBinAddr: 0x746E0, symSize: 0xE0 }
  - { offset: 0x1AEF4F, size: 0x8, addend: 0x0, symName: _quantize_iq2_xxs, symObjAddr: 0x23D30, symBinAddr: 0x747C0, symSize: 0x23B0 }
  - { offset: 0x1AF430, size: 0x8, addend: 0x0, symName: _quantize_iq2_xxs, symObjAddr: 0x23D30, symBinAddr: 0x747C0, symSize: 0x23B0 }
  - { offset: 0x1AFD6C, size: 0x8, addend: 0x0, symName: _quantize_iq2_xs, symObjAddr: 0x260E0, symBinAddr: 0x76B70, symSize: 0x2058 }
  - { offset: 0x1AFD80, size: 0x8, addend: 0x0, symName: _iq2_find_best_neighbour, symObjAddr: 0x33A94, symBinAddr: 0x84524, symSize: 0x288 }
  - { offset: 0x1AFE84, size: 0x8, addend: 0x0, symName: _iq1_sort_helper, symObjAddr: 0x33D1C, symBinAddr: 0x847AC, symSize: 0x18 }
  - { offset: 0x1B04B5, size: 0x8, addend: 0x0, symName: _quantize_iq2_xs, symObjAddr: 0x260E0, symBinAddr: 0x76B70, symSize: 0x2058 }
  - { offset: 0x1B0F3A, size: 0x8, addend: 0x0, symName: _iq3xs_init_impl, symObjAddr: 0x28138, symBinAddr: 0x78BC8, symSize: 0x98C }
  - { offset: 0x1B0F6A, size: 0x8, addend: 0x0, symName: _iq3_compare_func, symObjAddr: 0x28AC4, symBinAddr: 0x79554, symSize: 0x40 }
  - { offset: 0x1B0FC6, size: 0x8, addend: 0x0, symName: _iq3xs_free_impl, symObjAddr: 0x28B04, symBinAddr: 0x79594, symSize: 0xA0 }
  - { offset: 0x1B1043, size: 0x8, addend: 0x0, symName: _quantize_iq3_xxs, symObjAddr: 0x28BA4, symBinAddr: 0x79634, symSize: 0x15A4 }
  - { offset: 0x1B16FE, size: 0x8, addend: 0x0, symName: _quantize_iq3_xxs, symObjAddr: 0x28BA4, symBinAddr: 0x79634, symSize: 0x15A4 }
  - { offset: 0x1B24FC, size: 0x8, addend: 0x0, symName: _quantize_row_iq3_xxs_ref, symObjAddr: 0x2A148, symBinAddr: 0x7ABD8, symSize: 0x1310 }
  - { offset: 0x1B3216, size: 0x8, addend: 0x0, symName: _quantize_iq3_s, symObjAddr: 0x2B458, symBinAddr: 0x7BEE8, symSize: 0x17A8 }
  - { offset: 0x1B3AEE, size: 0x8, addend: 0x0, symName: _quantize_row_iq3_s_ref, symObjAddr: 0x2CC00, symBinAddr: 0x7D690, symSize: 0x10 }
  - { offset: 0x1B3B02, size: 0x8, addend: 0x0, symName: _quantize_row_iq3_s_ref, symObjAddr: 0x2CC00, symBinAddr: 0x7D690, symSize: 0x10 }
  - { offset: 0x1B3F80, size: 0x8, addend: 0x0, symName: _quantize_iq1_s, symObjAddr: 0x2CC10, symBinAddr: 0x7D6A0, symSize: 0x1530 }
  - { offset: 0x1B465F, size: 0x8, addend: 0x0, symName: _quantize_iq1_m, symObjAddr: 0x2E140, symBinAddr: 0x7EBD0, symSize: 0x1620 }
  - { offset: 0x1B4673, size: 0x8, addend: 0x0, symName: _iq1_find_best_neighbour2, symObjAddr: 0x33D34, symBinAddr: 0x847C4, symSize: 0x64C }
  - { offset: 0x1B4ED3, size: 0x8, addend: 0x0, symName: _quantize_iq1_m, symObjAddr: 0x2E140, symBinAddr: 0x7EBD0, symSize: 0x1620 }
  - { offset: 0x1B5637, size: 0x8, addend: 0x0, symName: _quantize_iq4_nl, symObjAddr: 0x2F760, symBinAddr: 0x801F0, symSize: 0x1E8 }
  - { offset: 0x1B5819, size: 0x8, addend: 0x0, symName: _quantize_row_iq4_nl_impl, symObjAddr: 0x2F948, symBinAddr: 0x803D8, symSize: 0xD10 }
  - { offset: 0x1B5F46, size: 0x8, addend: 0x0, symName: _quantize_row_iq4_nl_ref, symObjAddr: 0x30658, symBinAddr: 0x810E8, symSize: 0xEC }
  - { offset: 0x1B6084, size: 0x8, addend: 0x0, symName: _quantize_iq4_xs, symObjAddr: 0x30744, symBinAddr: 0x811D4, symSize: 0x1E4 }
  - { offset: 0x1B62AF, size: 0x8, addend: 0x0, symName: _quantize_row_iq4_xs_ref, symObjAddr: 0x30928, symBinAddr: 0x813B8, symSize: 0xEC }
  - { offset: 0x1B687F, size: 0x8, addend: 0x0, symName: _quantize_iq2_s, symObjAddr: 0x30A14, symBinAddr: 0x814A4, symSize: 0x2114 }
  - { offset: 0x1B72F0, size: 0x8, addend: 0x0, symName: _quantize_row_iq2_s_ref, symObjAddr: 0x32B28, symBinAddr: 0x835B8, symSize: 0x10 }
  - { offset: 0x1B7304, size: 0x8, addend: 0x0, symName: _quantize_row_iq2_s_ref, symObjAddr: 0x32B28, symBinAddr: 0x835B8, symSize: 0x10 }
  - { offset: 0x1B7422, size: 0x8, addend: 0x0, symName: _ggml_validate_row_data, symObjAddr: 0x32B38, symBinAddr: 0x835C8, symSize: 0xF5C }
  - { offset: 0x1B885A, size: 0x8, addend: 0x0, symName: _iq1_sort_helper, symObjAddr: 0x33D1C, symBinAddr: 0x847AC, symSize: 0x18 }
  - { offset: 0x1B8AE1, size: 0x8, addend: 0x0, symName: _ggml_critical_section_mutex, symObjAddr: 0x38, symBinAddr: 0x12C870, symSize: 0x0 }
  - { offset: 0x1B97E1, size: 0x8, addend: 0x0, symName: _ggml_critical_section_start, symObjAddr: 0x0, symBinAddr: 0x84E10, symSize: 0xC }
  - { offset: 0x1B97F7, size: 0x8, addend: 0x0, symName: _ggml_critical_section_end, symObjAddr: 0xC, symBinAddr: 0x84E1C, symSize: 0xC }
  - { offset: 0x1BB713, size: 0x8, addend: 0x0, symName: _ggml_abort, symObjAddr: 0x0, symBinAddr: 0x84E44, symSize: 0x74 }
  - { offset: 0x1BB787, size: 0x8, addend: 0x0, symName: _ggml_init, symObjAddr: 0x10B0, symBinAddr: 0x85EF4, symSize: 0x214 }
  - { offset: 0x1BB7AF, size: 0x8, addend: 0x0, symName: _ggml_init.is_first_call, symObjAddr: 0x6FBA0, symBinAddr: 0x190640, symSize: 0x0 }
  - { offset: 0x1BB962, size: 0x8, addend: 0x0, symName: _ggml_reset, symObjAddr: 0x12C4, symBinAddr: 0x86108, symSize: 0x14 }
  - { offset: 0x1BB9AE, size: 0x8, addend: 0x0, symName: _ggml_hash_size, symObjAddr: 0xB5F0, symBinAddr: 0x90434, symSize: 0x48 }
  - { offset: 0x1BB9CF, size: 0x8, addend: 0x0, symName: _ggml_hash_size.primes, symObjAddr: 0x10670, symBinAddr: 0x108010, symSize: 0x0 }
  - { offset: 0x1BBA42, size: 0x8, addend: 0x0, symName: _ggml_table_f32_f16, symBinAddr: 0x1D09E8, symSize: 0x0 }
  - { offset: 0x1BBA7F, size: 0x8, addend: 0x0, symName: _type_traits, symObjAddr: 0x13258, symBinAddr: 0x1251C8, symSize: 0x0 }
  - { offset: 0x1BBBB4, size: 0x8, addend: 0x0, symName: _GGML_OP_NAME, symObjAddr: 0x13AE0, symBinAddr: 0x125A50, symSize: 0x0 }
  - { offset: 0x1BBBD9, size: 0x8, addend: 0x0, symName: _GGML_OP_SYMBOL, symObjAddr: 0x13D78, symBinAddr: 0x125CE8, symSize: 0x0 }
  - { offset: 0x1BBBF0, size: 0x8, addend: 0x0, symName: _GGML_UNARY_OP_NAME, symObjAddr: 0x14010, symBinAddr: 0x125F80, symSize: 0x0 }
  - { offset: 0x1BBC14, size: 0x8, addend: 0x0, symName: _g_logger_state.0, symObjAddr: 0x140A0, symBinAddr: 0x12C8B0, symSize: 0x0 }
  - { offset: 0x1BBC1F, size: 0x8, addend: 0x0, symName: _g_logger_state.1, symObjAddr: 0x6FBA8, symBinAddr: 0x190648, symSize: 0x0 }
  - { offset: 0x1BC4AC, size: 0x8, addend: 0x0, symName: _ggml_abort, symObjAddr: 0x0, symBinAddr: 0x84E44, symSize: 0x74 }
  - { offset: 0x1BC540, size: 0x8, addend: 0x0, symName: _ggml_log_internal, symObjAddr: 0x74, symBinAddr: 0x84EB8, symSize: 0x104 }
  - { offset: 0x1BC855, size: 0x8, addend: 0x0, symName: _ggml_log_internal, symObjAddr: 0x74, symBinAddr: 0x84EB8, symSize: 0x104 }
  - { offset: 0x1BC98D, size: 0x8, addend: 0x0, symName: _ggml_log_callback_default, symObjAddr: 0x178, symBinAddr: 0x84FBC, symSize: 0x30 }
  - { offset: 0x1BCA0E, size: 0x8, addend: 0x0, symName: _ggml_aligned_malloc, symObjAddr: 0x1A8, symBinAddr: 0x84FEC, symSize: 0xD4 }
  - { offset: 0x1BCAD3, size: 0x8, addend: 0x0, symName: _ggml_aligned_free, symObjAddr: 0x27C, symBinAddr: 0x850C0, symSize: 0x4 }
  - { offset: 0x1BCAFB, size: 0x8, addend: 0x0, symName: _ggml_aligned_free, symObjAddr: 0x27C, symBinAddr: 0x850C0, symSize: 0x4 }
  - { offset: 0x1BCB0F, size: 0x8, addend: 0x0, symName: _ggml_status_to_string, symObjAddr: 0x280, symBinAddr: 0x850C4, symSize: 0x28 }
  - { offset: 0x1BCB79, size: 0x8, addend: 0x0, symName: _ggml_fp16_to_fp32, symObjAddr: 0x2A8, symBinAddr: 0x850EC, symSize: 0xC }
  - { offset: 0x1BCBA9, size: 0x8, addend: 0x0, symName: _ggml_fp16_to_fp32, symObjAddr: 0x2A8, symBinAddr: 0x850EC, symSize: 0xC }
  - { offset: 0x1BCC07, size: 0x8, addend: 0x0, symName: _ggml_fp32_to_fp16, symObjAddr: 0x2B4, symBinAddr: 0x850F8, symSize: 0x10 }
  - { offset: 0x1BCC37, size: 0x8, addend: 0x0, symName: _ggml_fp32_to_fp16, symObjAddr: 0x2B4, symBinAddr: 0x850F8, symSize: 0x10 }
  - { offset: 0x1BCCAB, size: 0x8, addend: 0x0, symName: _ggml_bf16_to_fp32, symObjAddr: 0x2C4, symBinAddr: 0x85108, symSize: 0xC }
  - { offset: 0x1BCCD9, size: 0x8, addend: 0x0, symName: _ggml_bf16_to_fp32, symObjAddr: 0x2C4, symBinAddr: 0x85108, symSize: 0xC }
  - { offset: 0x1BCD55, size: 0x8, addend: 0x0, symName: _ggml_fp32_to_bf16, symObjAddr: 0x2D0, symBinAddr: 0x85114, symSize: 0x38 }
  - { offset: 0x1BCD85, size: 0x8, addend: 0x0, symName: _ggml_fp32_to_bf16, symObjAddr: 0x2D0, symBinAddr: 0x85114, symSize: 0x38 }
  - { offset: 0x1BCDB7, size: 0x8, addend: 0x0, symName: _ggml_fp16_to_fp32_row, symObjAddr: 0x308, symBinAddr: 0x8514C, symSize: 0x7C }
  - { offset: 0x1BCDFB, size: 0x8, addend: 0x0, symName: _ggml_fp16_to_fp32_row, symObjAddr: 0x308, symBinAddr: 0x8514C, symSize: 0x7C }
  - { offset: 0x1BCE35, size: 0x8, addend: 0x0, symName: _ggml_fp32_to_fp16_row, symObjAddr: 0x384, symBinAddr: 0x851C8, symSize: 0x7C }
  - { offset: 0x1BCE85, size: 0x8, addend: 0x0, symName: _ggml_bf16_to_fp32_row, symObjAddr: 0x400, symBinAddr: 0x85244, symSize: 0x94 }
  - { offset: 0x1BCEF4, size: 0x8, addend: 0x0, symName: _ggml_fp32_to_bf16_row_ref, symObjAddr: 0x494, symBinAddr: 0x852D8, symSize: 0xF0 }
  - { offset: 0x1BCF20, size: 0x8, addend: 0x0, symName: _ggml_fp32_to_bf16_row_ref, symObjAddr: 0x494, symBinAddr: 0x852D8, symSize: 0xF0 }
  - { offset: 0x1BCF53, size: 0x8, addend: 0x0, symName: _ggml_fp32_to_bf16_row, symObjAddr: 0x584, symBinAddr: 0x853C8, symSize: 0xF0 }
  - { offset: 0x1BCFC2, size: 0x8, addend: 0x0, symName: _ggml_guid_matches, symObjAddr: 0x674, symBinAddr: 0x854B8, symSize: 0x18 }
  - { offset: 0x1BCFFE, size: 0x8, addend: 0x0, symName: _ggml_time_init, symObjAddr: 0x68C, symBinAddr: 0x854D0, symSize: 0x4 }
  - { offset: 0x1BD015, size: 0x8, addend: 0x0, symName: _ggml_time_ms, symObjAddr: 0x690, symBinAddr: 0x854D4, symSize: 0x4C }
  - { offset: 0x1BD0BF, size: 0x8, addend: 0x0, symName: _ggml_time_us, symObjAddr: 0x6DC, symBinAddr: 0x85520, symSize: 0x50 }
  - { offset: 0x1BD107, size: 0x8, addend: 0x0, symName: _ggml_cycles, symObjAddr: 0x72C, symBinAddr: 0x85570, symSize: 0x4 }
  - { offset: 0x1BD126, size: 0x8, addend: 0x0, symName: _ggml_cycles, symObjAddr: 0x72C, symBinAddr: 0x85570, symSize: 0x4 }
  - { offset: 0x1BD141, size: 0x8, addend: 0x0, symName: _ggml_cycles_per_ms, symObjAddr: 0x730, symBinAddr: 0x85574, symSize: 0x8 }
  - { offset: 0x1BD15C, size: 0x8, addend: 0x0, symName: _ggml_fopen, symObjAddr: 0x738, symBinAddr: 0x8557C, symSize: 0x4 }
  - { offset: 0x1BD184, size: 0x8, addend: 0x0, symName: _ggml_fopen, symObjAddr: 0x738, symBinAddr: 0x8557C, symSize: 0x4 }
  - { offset: 0x1BD1BD, size: 0x8, addend: 0x0, symName: _ggml_get_type_traits, symObjAddr: 0x73C, symBinAddr: 0x85580, symSize: 0x4C }
  - { offset: 0x1BD1ED, size: 0x8, addend: 0x0, symName: _ggml_print_object, symObjAddr: 0x788, symBinAddr: 0x855CC, symSize: 0x40 }
  - { offset: 0x1BD201, size: 0x8, addend: 0x0, symName: _ggml_print_object, symObjAddr: 0x788, symBinAddr: 0x855CC, symSize: 0x40 }
  - { offset: 0x1BD259, size: 0x8, addend: 0x0, symName: _ggml_print_objects, symObjAddr: 0x7C8, symBinAddr: 0x8560C, symSize: 0x94 }
  - { offset: 0x1BD2F8, size: 0x8, addend: 0x0, symName: _ggml_nelements, symObjAddr: 0x85C, symBinAddr: 0x856A0, symSize: 0x18 }
  - { offset: 0x1BD317, size: 0x8, addend: 0x0, symName: _ggml_nrows, symObjAddr: 0x874, symBinAddr: 0x856B8, symSize: 0x14 }
  - { offset: 0x1BD37C, size: 0x8, addend: 0x0, symName: _ggml_nbytes, symObjAddr: 0x888, symBinAddr: 0x856CC, symSize: 0x8C }
  - { offset: 0x1BD3F1, size: 0x8, addend: 0x0, symName: _ggml_blck_size, symObjAddr: 0x914, symBinAddr: 0x85758, symSize: 0x18 }
  - { offset: 0x1BD410, size: 0x8, addend: 0x0, symName: _ggml_type_size, symObjAddr: 0x92C, symBinAddr: 0x85770, symSize: 0x18 }
  - { offset: 0x1BD491, size: 0x8, addend: 0x0, symName: _ggml_nbytes_pad, symObjAddr: 0x944, symBinAddr: 0x85788, symSize: 0x94 }
  - { offset: 0x1BD4C1, size: 0x8, addend: 0x0, symName: _ggml_nbytes_pad, symObjAddr: 0x944, symBinAddr: 0x85788, symSize: 0x94 }
  - { offset: 0x1BD533, size: 0x8, addend: 0x0, symName: _ggml_row_size, symObjAddr: 0x9D8, symBinAddr: 0x8581C, symSize: 0x24 }
  - { offset: 0x1BD55D, size: 0x8, addend: 0x0, symName: _ggml_row_size, symObjAddr: 0x9D8, symBinAddr: 0x8581C, symSize: 0x24 }
  - { offset: 0x1BD58F, size: 0x8, addend: 0x0, symName: _ggml_type_sizef, symObjAddr: 0x9FC, symBinAddr: 0x85840, symSize: 0x28 }
  - { offset: 0x1BD5BA, size: 0x8, addend: 0x0, symName: _ggml_type_name, symObjAddr: 0xA24, symBinAddr: 0x85868, symSize: 0x2C }
  - { offset: 0x1BD5D9, size: 0x8, addend: 0x0, symName: _ggml_is_quantized, symObjAddr: 0xA50, symBinAddr: 0x85894, symSize: 0x18 }
  - { offset: 0x1BD5F8, size: 0x8, addend: 0x0, symName: _ggml_op_name, symObjAddr: 0xA68, symBinAddr: 0x858AC, symSize: 0x10 }
  - { offset: 0x1BD617, size: 0x8, addend: 0x0, symName: _ggml_op_symbol, symObjAddr: 0xA78, symBinAddr: 0x858BC, symSize: 0x10 }
  - { offset: 0x1BD636, size: 0x8, addend: 0x0, symName: _ggml_unary_op_name, symObjAddr: 0xA88, symBinAddr: 0x858CC, symSize: 0x10 }
  - { offset: 0x1BD6CF, size: 0x8, addend: 0x0, symName: _ggml_op_desc, symObjAddr: 0xA98, symBinAddr: 0x858DC, symSize: 0x38 }
  - { offset: 0x1BD789, size: 0x8, addend: 0x0, symName: _ggml_get_unary_op, symObjAddr: 0xAD0, symBinAddr: 0x85914, symSize: 0x4C }
  - { offset: 0x1BD7D1, size: 0x8, addend: 0x0, symName: _ggml_element_size, symObjAddr: 0xB1C, symBinAddr: 0x85960, symSize: 0x1C }
  - { offset: 0x1BD7E5, size: 0x8, addend: 0x0, symName: _ggml_element_size, symObjAddr: 0xB1C, symBinAddr: 0x85960, symSize: 0x1C }
  - { offset: 0x1BD81A, size: 0x8, addend: 0x0, symName: _ggml_is_scalar, symObjAddr: 0xB38, symBinAddr: 0x8597C, symSize: 0x3C }
  - { offset: 0x1BD839, size: 0x8, addend: 0x0, symName: _ggml_is_vector, symObjAddr: 0xB74, symBinAddr: 0x859B8, symSize: 0x30 }
  - { offset: 0x1BD858, size: 0x8, addend: 0x0, symName: _ggml_is_matrix, symObjAddr: 0xBA4, symBinAddr: 0x859E8, symSize: 0x24 }
  - { offset: 0x1BD877, size: 0x8, addend: 0x0, symName: _ggml_is_3d, symObjAddr: 0xBC8, symBinAddr: 0x85A0C, symSize: 0x10 }
  - { offset: 0x1BD896, size: 0x8, addend: 0x0, symName: _ggml_n_dims, symObjAddr: 0xBD8, symBinAddr: 0x85A1C, symSize: 0x3C }
  - { offset: 0x1BD8DB, size: 0x8, addend: 0x0, symName: _ggml_ftype_to_ggml_type, symObjAddr: 0xC14, symBinAddr: 0x85A58, symSize: 0x60 }
  - { offset: 0x1BD91C, size: 0x8, addend: 0x0, symName: _ggml_tensor_overhead, symObjAddr: 0xC74, symBinAddr: 0x85AB8, symSize: 0x8 }
  - { offset: 0x1BD930, size: 0x8, addend: 0x0, symName: _ggml_tensor_overhead, symObjAddr: 0xC74, symBinAddr: 0x85AB8, symSize: 0x8 }
  - { offset: 0x1BD94B, size: 0x8, addend: 0x0, symName: _ggml_is_transposed, symObjAddr: 0xC7C, symBinAddr: 0x85AC0, symSize: 0x10 }
  - { offset: 0x1BD9CC, size: 0x8, addend: 0x0, symName: _ggml_is_contiguous, symObjAddr: 0xC8C, symBinAddr: 0x85AD0, symSize: 0x9C }
  - { offset: 0x1BD9EE, size: 0x8, addend: 0x0, symName: _ggml_is_contiguous, symObjAddr: 0xC8C, symBinAddr: 0x85AD0, symSize: 0x9C }
  - { offset: 0x1BDA0C, size: 0x8, addend: 0x0, symName: _ggml_is_contiguous, symObjAddr: 0xC8C, symBinAddr: 0x85AD0, symSize: 0x9C }
  - { offset: 0x1BDA7F, size: 0x8, addend: 0x0, symName: _ggml_is_contiguous_0, symObjAddr: 0xD28, symBinAddr: 0x85B6C, symSize: 0x9C }
  - { offset: 0x1BDAA1, size: 0x8, addend: 0x0, symName: _ggml_is_contiguous_0, symObjAddr: 0xD28, symBinAddr: 0x85B6C, symSize: 0x9C }
  - { offset: 0x1BDB13, size: 0x8, addend: 0x0, symName: _ggml_is_contiguous_1, symObjAddr: 0xDC4, symBinAddr: 0x85C08, symSize: 0xB0 }
  - { offset: 0x1BDB35, size: 0x8, addend: 0x0, symName: _ggml_is_contiguous_1, symObjAddr: 0xDC4, symBinAddr: 0x85C08, symSize: 0xB0 }
  - { offset: 0x1BDBA7, size: 0x8, addend: 0x0, symName: _ggml_is_contiguous_2, symObjAddr: 0xE74, symBinAddr: 0x85CB8, symSize: 0x9C }
  - { offset: 0x1BDBD7, size: 0x8, addend: 0x0, symName: _ggml_is_contiguous_2, symObjAddr: 0xE74, symBinAddr: 0x85CB8, symSize: 0x9C }
  - { offset: 0x1BDC49, size: 0x8, addend: 0x0, symName: _ggml_is_permuted, symObjAddr: 0xF10, symBinAddr: 0x85D54, symSize: 0x38 }
  - { offset: 0x1BDC76, size: 0x8, addend: 0x0, symName: _ggml_is_empty, symObjAddr: 0xF48, symBinAddr: 0x85D8C, symSize: 0x30 }
  - { offset: 0x1BDC94, size: 0x8, addend: 0x0, symName: _ggml_is_empty, symObjAddr: 0xF48, symBinAddr: 0x85D8C, symSize: 0x30 }
  - { offset: 0x1BDCAE, size: 0x8, addend: 0x0, symName: _ggml_are_same_shape, symObjAddr: 0xF78, symBinAddr: 0x85DBC, symSize: 0x4C }
  - { offset: 0x1BDCD5, size: 0x8, addend: 0x0, symName: _ggml_are_same_stride, symObjAddr: 0xFC4, symBinAddr: 0x85E08, symSize: 0x4C }
  - { offset: 0x1BDD3D, size: 0x8, addend: 0x0, symName: _ggml_can_repeat, symObjAddr: 0x1010, symBinAddr: 0x85E54, symSize: 0xA0 }
  - { offset: 0x1BDD67, size: 0x8, addend: 0x0, symName: _ggml_can_repeat, symObjAddr: 0x1010, symBinAddr: 0x85E54, symSize: 0xA0 }
  - { offset: 0x1BDD81, size: 0x8, addend: 0x0, symName: _ggml_can_repeat, symObjAddr: 0x1010, symBinAddr: 0x85E54, symSize: 0xA0 }
  - { offset: 0x1BDE76, size: 0x8, addend: 0x0, symName: _ggml_reset, symObjAddr: 0x12C4, symBinAddr: 0x86108, symSize: 0x14 }
  - { offset: 0x1BDEC2, size: 0x8, addend: 0x0, symName: _ggml_free, symObjAddr: 0x12D8, symBinAddr: 0x8611C, symSize: 0x38 }
  - { offset: 0x1BDF26, size: 0x8, addend: 0x0, symName: _ggml_used_mem, symObjAddr: 0x1310, symBinAddr: 0x86154, symSize: 0x1C }
  - { offset: 0x1BDF53, size: 0x8, addend: 0x0, symName: _ggml_get_no_alloc, symObjAddr: 0x132C, symBinAddr: 0x86170, symSize: 0x8 }
  - { offset: 0x1BDF80, size: 0x8, addend: 0x0, symName: _ggml_set_no_alloc, symObjAddr: 0x1334, symBinAddr: 0x86178, symSize: 0x8 }
  - { offset: 0x1BDFB4, size: 0x8, addend: 0x0, symName: _ggml_get_mem_buffer, symObjAddr: 0x133C, symBinAddr: 0x86180, symSize: 0x8 }
  - { offset: 0x1BDFE1, size: 0x8, addend: 0x0, symName: _ggml_get_mem_size, symObjAddr: 0x1344, symBinAddr: 0x86188, symSize: 0x8 }
  - { offset: 0x1BE106, size: 0x8, addend: 0x0, symName: _ggml_get_max_tensor_size, symObjAddr: 0x134C, symBinAddr: 0x86190, symSize: 0xD4 }
  - { offset: 0x1BE15E, size: 0x8, addend: 0x0, symName: _ggml_get_max_tensor_size, symObjAddr: 0x134C, symBinAddr: 0x86190, symSize: 0xD4 }
  - { offset: 0x1BE24F, size: 0x8, addend: 0x0, symName: _ggml_get_first_tensor, symObjAddr: 0x1420, symBinAddr: 0x86264, symSize: 0x30 }
  - { offset: 0x1BE282, size: 0x8, addend: 0x0, symName: _ggml_get_next_tensor, symObjAddr: 0x1450, symBinAddr: 0x86294, symSize: 0x30 }
  - { offset: 0x1BE2BD, size: 0x8, addend: 0x0, symName: _ggml_new_tensor, symObjAddr: 0x1480, symBinAddr: 0x862C4, symSize: 0xC }
  - { offset: 0x1BE32D, size: 0x8, addend: 0x0, symName: _ggml_new_tensor_impl, symObjAddr: 0x148C, symBinAddr: 0x862D0, symSize: 0x42C }
  - { offset: 0x1BE60F, size: 0x8, addend: 0x0, symName: _ggml_new_tensor_1d, symObjAddr: 0x18B8, symBinAddr: 0x866FC, symSize: 0x30 }
  - { offset: 0x1BE738, size: 0x8, addend: 0x0, symName: _ggml_new_tensor_1d, symObjAddr: 0x18B8, symBinAddr: 0x866FC, symSize: 0x30 }
  - { offset: 0x1BE7DB, size: 0x8, addend: 0x0, symName: _ggml_new_tensor_2d, symObjAddr: 0x18E8, symBinAddr: 0x8672C, symSize: 0x5C }
  - { offset: 0x1BE895, size: 0x8, addend: 0x0, symName: _ggml_new_tensor_3d, symObjAddr: 0x1944, symBinAddr: 0x86788, symSize: 0x60 }
  - { offset: 0x1BE957, size: 0x8, addend: 0x0, symName: _ggml_new_tensor_4d, symObjAddr: 0x19A4, symBinAddr: 0x867E8, symSize: 0x60 }
  - { offset: 0x1BEA25, size: 0x8, addend: 0x0, symName: _ggml_new_buffer, symObjAddr: 0x1A04, symBinAddr: 0x86848, symSize: 0xDC }
  - { offset: 0x1BEB02, size: 0x8, addend: 0x0, symName: _ggml_dup_tensor, symObjAddr: 0x1AE0, symBinAddr: 0x86924, symSize: 0x18 }
  - { offset: 0x1BEB88, size: 0x8, addend: 0x0, symName: _ggml_unravel_index, symObjAddr: 0x1AF8, symBinAddr: 0x8693C, symSize: 0x4C }
  - { offset: 0x1BEC71, size: 0x8, addend: 0x0, symName: _ggml_get_data, symObjAddr: 0x1B44, symBinAddr: 0x86988, symSize: 0x8 }
  - { offset: 0x1BEC9E, size: 0x8, addend: 0x0, symName: _ggml_get_data_f32, symObjAddr: 0x1B4C, symBinAddr: 0x86990, symSize: 0x8 }
  - { offset: 0x1BECCB, size: 0x8, addend: 0x0, symName: _ggml_get_name, symObjAddr: 0x1B54, symBinAddr: 0x86998, symSize: 0x8 }
  - { offset: 0x1BECEA, size: 0x8, addend: 0x0, symName: _ggml_set_name, symObjAddr: 0x1B5C, symBinAddr: 0x869A0, symSize: 0x2C }
  - { offset: 0x1BED35, size: 0x8, addend: 0x0, symName: _ggml_format_name, symObjAddr: 0x1B88, symBinAddr: 0x869CC, symSize: 0x44 }
  - { offset: 0x1BED85, size: 0x8, addend: 0x0, symName: _ggml_view_tensor, symObjAddr: 0x1BCC, symBinAddr: 0x86A10, symSize: 0x70 }
  - { offset: 0x1BEE10, size: 0x8, addend: 0x0, symName: _ggml_get_tensor, symObjAddr: 0x1C3C, symBinAddr: 0x86A80, symSize: 0x78 }
  - { offset: 0x1BEF33, size: 0x8, addend: 0x0, symName: _ggml_dup, symObjAddr: 0x1CB4, symBinAddr: 0x86AF8, symSize: 0x40 }
  - { offset: 0x1BF088, size: 0x8, addend: 0x0, symName: _ggml_dup_inplace, symObjAddr: 0x1CF4, symBinAddr: 0x86B38, symSize: 0x7C }
  - { offset: 0x1BF18D, size: 0x8, addend: 0x0, symName: _ggml_add, symObjAddr: 0x1D70, symBinAddr: 0x86BB4, symSize: 0x8 }
  - { offset: 0x1BF203, size: 0x8, addend: 0x0, symName: _ggml_add_impl, symObjAddr: 0x1D78, symBinAddr: 0x86BBC, symSize: 0x144 }
  - { offset: 0x1BF3DF, size: 0x8, addend: 0x0, symName: _ggml_add_inplace, symObjAddr: 0x1EBC, symBinAddr: 0x86D00, symSize: 0x8 }
  - { offset: 0x1BF41C, size: 0x8, addend: 0x0, symName: _ggml_add_inplace, symObjAddr: 0x1EBC, symBinAddr: 0x86D00, symSize: 0x8 }
  - { offset: 0x1BF527, size: 0x8, addend: 0x0, symName: _ggml_add_cast, symObjAddr: 0x1EC4, symBinAddr: 0x86D08, symSize: 0x134 }
  - { offset: 0x1BF707, size: 0x8, addend: 0x0, symName: _ggml_add1, symObjAddr: 0x1FF8, symBinAddr: 0x86E3C, symSize: 0x8 }
  - { offset: 0x1BF71B, size: 0x8, addend: 0x0, symName: _ggml_add1, symObjAddr: 0x1FF8, symBinAddr: 0x86E3C, symSize: 0x8 }
  - { offset: 0x1BF791, size: 0x8, addend: 0x0, symName: _ggml_add1_impl, symObjAddr: 0x2000, symBinAddr: 0x86E44, symSize: 0x15C }
  - { offset: 0x1BF954, size: 0x8, addend: 0x0, symName: _ggml_add1_inplace, symObjAddr: 0x215C, symBinAddr: 0x86FA0, symSize: 0x8 }
  - { offset: 0x1BF9A0, size: 0x8, addend: 0x0, symName: _ggml_add1_inplace, symObjAddr: 0x215C, symBinAddr: 0x86FA0, symSize: 0x8 }
  - { offset: 0x1BFA16, size: 0x8, addend: 0x0, symName: _ggml_acc, symObjAddr: 0x2164, symBinAddr: 0x86FA8, symSize: 0x8 }
  - { offset: 0x1BFAE8, size: 0x8, addend: 0x0, symName: _ggml_acc_impl, symObjAddr: 0x216C, symBinAddr: 0x86FB0, symSize: 0x23C }
  - { offset: 0x1BFE02, size: 0x8, addend: 0x0, symName: _ggml_acc_inplace, symObjAddr: 0x23A8, symBinAddr: 0x871EC, symSize: 0x8 }
  - { offset: 0x1BFE7B, size: 0x8, addend: 0x0, symName: _ggml_acc_inplace, symObjAddr: 0x23A8, symBinAddr: 0x871EC, symSize: 0x8 }
  - { offset: 0x1BFF4D, size: 0x8, addend: 0x0, symName: _ggml_sub, symObjAddr: 0x23B0, symBinAddr: 0x871F4, symSize: 0x8 }
  - { offset: 0x1BFFC3, size: 0x8, addend: 0x0, symName: _ggml_sub_impl, symObjAddr: 0x23B8, symBinAddr: 0x871FC, symSize: 0x144 }
  - { offset: 0x1C019F, size: 0x8, addend: 0x0, symName: _ggml_sub_inplace, symObjAddr: 0x24FC, symBinAddr: 0x87340, symSize: 0x8 }
  - { offset: 0x1C01B3, size: 0x8, addend: 0x0, symName: _ggml_sub_inplace, symObjAddr: 0x24FC, symBinAddr: 0x87340, symSize: 0x8 }
  - { offset: 0x1C0229, size: 0x8, addend: 0x0, symName: _ggml_mul, symObjAddr: 0x2504, symBinAddr: 0x87348, symSize: 0x8 }
  - { offset: 0x1C0283, size: 0x8, addend: 0x0, symName: _ggml_mul_impl, symObjAddr: 0x250C, symBinAddr: 0x87350, symSize: 0x144 }
  - { offset: 0x1C045F, size: 0x8, addend: 0x0, symName: _ggml_mul_inplace, symObjAddr: 0x2650, symBinAddr: 0x87494, symSize: 0x8 }
  - { offset: 0x1C0473, size: 0x8, addend: 0x0, symName: _ggml_mul_inplace, symObjAddr: 0x2650, symBinAddr: 0x87494, symSize: 0x8 }
  - { offset: 0x1C04E9, size: 0x8, addend: 0x0, symName: _ggml_div, symObjAddr: 0x2658, symBinAddr: 0x8749C, symSize: 0x8 }
  - { offset: 0x1C0543, size: 0x8, addend: 0x0, symName: _ggml_div_impl, symObjAddr: 0x2660, symBinAddr: 0x874A4, symSize: 0x144 }
  - { offset: 0x1C071F, size: 0x8, addend: 0x0, symName: _ggml_div_inplace, symObjAddr: 0x27A4, symBinAddr: 0x875E8, symSize: 0x8 }
  - { offset: 0x1C0733, size: 0x8, addend: 0x0, symName: _ggml_div_inplace, symObjAddr: 0x27A4, symBinAddr: 0x875E8, symSize: 0x8 }
  - { offset: 0x1C07EC, size: 0x8, addend: 0x0, symName: _ggml_sqr, symObjAddr: 0x27AC, symBinAddr: 0x875F0, symSize: 0x40 }
  - { offset: 0x1C08FB, size: 0x8, addend: 0x0, symName: _ggml_sqr_inplace, symObjAddr: 0x27EC, symBinAddr: 0x87630, symSize: 0x7C }
  - { offset: 0x1C0A43, size: 0x8, addend: 0x0, symName: _ggml_sqrt, symObjAddr: 0x2868, symBinAddr: 0x876AC, symSize: 0x40 }
  - { offset: 0x1C0B52, size: 0x8, addend: 0x0, symName: _ggml_sqrt_inplace, symObjAddr: 0x28A8, symBinAddr: 0x876EC, symSize: 0x7C }
  - { offset: 0x1C0C9A, size: 0x8, addend: 0x0, symName: _ggml_log, symObjAddr: 0x2924, symBinAddr: 0x87768, symSize: 0x40 }
  - { offset: 0x1C0DA9, size: 0x8, addend: 0x0, symName: _ggml_log_inplace, symObjAddr: 0x2964, symBinAddr: 0x877A8, symSize: 0x7C }
  - { offset: 0x1C0EF1, size: 0x8, addend: 0x0, symName: _ggml_sin, symObjAddr: 0x29E0, symBinAddr: 0x87824, symSize: 0x40 }
  - { offset: 0x1C0FEB, size: 0x8, addend: 0x0, symName: _ggml_sin_inplace, symObjAddr: 0x2A20, symBinAddr: 0x87864, symSize: 0x7C }
  - { offset: 0x1C1133, size: 0x8, addend: 0x0, symName: _ggml_cos, symObjAddr: 0x2A9C, symBinAddr: 0x878E0, symSize: 0x40 }
  - { offset: 0x1C122D, size: 0x8, addend: 0x0, symName: _ggml_cos_inplace, symObjAddr: 0x2ADC, symBinAddr: 0x87920, symSize: 0x7C }
  - { offset: 0x1C1368, size: 0x8, addend: 0x0, symName: _ggml_sum, symObjAddr: 0x2B58, symBinAddr: 0x8799C, symSize: 0x50 }
  - { offset: 0x1C1457, size: 0x8, addend: 0x0, symName: _ggml_sum_rows, symObjAddr: 0x2BA8, symBinAddr: 0x879EC, symSize: 0x8C }
  - { offset: 0x1C1542, size: 0x8, addend: 0x0, symName: _ggml_mean, symObjAddr: 0x2C34, symBinAddr: 0x87A78, symSize: 0x8C }
  - { offset: 0x1C1609, size: 0x8, addend: 0x0, symName: _ggml_argmax, symObjAddr: 0x2CC0, symBinAddr: 0x87B04, symSize: 0xC0 }
  - { offset: 0x1C172B, size: 0x8, addend: 0x0, symName: _ggml_count_equal, symObjAddr: 0x2D80, symBinAddr: 0x87BC4, symSize: 0xB8 }
  - { offset: 0x1C1768, size: 0x8, addend: 0x0, symName: _ggml_count_equal, symObjAddr: 0x2D80, symBinAddr: 0x87BC4, symSize: 0xB8 }
  - { offset: 0x1C188E, size: 0x8, addend: 0x0, symName: _ggml_repeat, symObjAddr: 0x2E38, symBinAddr: 0x87C7C, symSize: 0xF0 }
  - { offset: 0x1C18A2, size: 0x8, addend: 0x0, symName: _ggml_repeat, symObjAddr: 0x2E38, symBinAddr: 0x87C7C, symSize: 0xF0 }
  - { offset: 0x1C19F1, size: 0x8, addend: 0x0, symName: _ggml_repeat_back, symObjAddr: 0x2F28, symBinAddr: 0x87D6C, symSize: 0xF0 }
  - { offset: 0x1C1A05, size: 0x8, addend: 0x0, symName: _ggml_repeat_back, symObjAddr: 0x2F28, symBinAddr: 0x87D6C, symSize: 0xF0 }
  - { offset: 0x1C1B54, size: 0x8, addend: 0x0, symName: _ggml_concat, symObjAddr: 0x3018, symBinAddr: 0x87E5C, symSize: 0x1B4 }
  - { offset: 0x1C1B96, size: 0x8, addend: 0x0, symName: _ggml_concat, symObjAddr: 0x3018, symBinAddr: 0x87E5C, symSize: 0x1B4 }
  - { offset: 0x1C1DA8, size: 0x8, addend: 0x0, symName: _ggml_abs, symObjAddr: 0x31CC, symBinAddr: 0x88010, symSize: 0x10C }
  - { offset: 0x1C1F7C, size: 0x8, addend: 0x0, symName: _ggml_unary, symObjAddr: 0x32D8, symBinAddr: 0x8811C, symSize: 0x10C }
  - { offset: 0x1C1F90, size: 0x8, addend: 0x0, symName: _ggml_unary, symObjAddr: 0x32D8, symBinAddr: 0x8811C, symSize: 0x10C }
  - { offset: 0x1C2160, size: 0x8, addend: 0x0, symName: _ggml_abs_inplace, symObjAddr: 0x33E4, symBinAddr: 0x88228, symSize: 0x8 }
  - { offset: 0x1C2174, size: 0x8, addend: 0x0, symName: _ggml_abs_inplace, symObjAddr: 0x33E4, symBinAddr: 0x88228, symSize: 0x8 }
  - { offset: 0x1C21D3, size: 0x8, addend: 0x0, symName: _ggml_unary_inplace, symObjAddr: 0x33EC, symBinAddr: 0x88230, symSize: 0x140 }
  - { offset: 0x1C23B5, size: 0x8, addend: 0x0, symName: _ggml_sgn, symObjAddr: 0x352C, symBinAddr: 0x88370, symSize: 0x10C }
  - { offset: 0x1C23C9, size: 0x8, addend: 0x0, symName: _ggml_sgn, symObjAddr: 0x352C, symBinAddr: 0x88370, symSize: 0x10C }
  - { offset: 0x1C259D, size: 0x8, addend: 0x0, symName: _ggml_sgn_inplace, symObjAddr: 0x3638, symBinAddr: 0x8847C, symSize: 0x8 }
  - { offset: 0x1C25B1, size: 0x8, addend: 0x0, symName: _ggml_sgn_inplace, symObjAddr: 0x3638, symBinAddr: 0x8847C, symSize: 0x8 }
  - { offset: 0x1C2610, size: 0x8, addend: 0x0, symName: _ggml_neg, symObjAddr: 0x3640, symBinAddr: 0x88484, symSize: 0x10C }
  - { offset: 0x1C27CF, size: 0x8, addend: 0x0, symName: _ggml_neg_inplace, symObjAddr: 0x374C, symBinAddr: 0x88590, symSize: 0x8 }
  - { offset: 0x1C27E3, size: 0x8, addend: 0x0, symName: _ggml_neg_inplace, symObjAddr: 0x374C, symBinAddr: 0x88590, symSize: 0x8 }
  - { offset: 0x1C2842, size: 0x8, addend: 0x0, symName: _ggml_step, symObjAddr: 0x3754, symBinAddr: 0x88598, symSize: 0x10C }
  - { offset: 0x1C2A16, size: 0x8, addend: 0x0, symName: _ggml_step_inplace, symObjAddr: 0x3860, symBinAddr: 0x886A4, symSize: 0x8 }
  - { offset: 0x1C2A2A, size: 0x8, addend: 0x0, symName: _ggml_step_inplace, symObjAddr: 0x3860, symBinAddr: 0x886A4, symSize: 0x8 }
  - { offset: 0x1C2A89, size: 0x8, addend: 0x0, symName: _ggml_tanh, symObjAddr: 0x3868, symBinAddr: 0x886AC, symSize: 0x10C }
  - { offset: 0x1C2C5D, size: 0x8, addend: 0x0, symName: _ggml_tanh_inplace, symObjAddr: 0x3974, symBinAddr: 0x887B8, symSize: 0x8 }
  - { offset: 0x1C2C71, size: 0x8, addend: 0x0, symName: _ggml_tanh_inplace, symObjAddr: 0x3974, symBinAddr: 0x887B8, symSize: 0x8 }
  - { offset: 0x1C2CD0, size: 0x8, addend: 0x0, symName: _ggml_elu, symObjAddr: 0x397C, symBinAddr: 0x887C0, symSize: 0x10C }
  - { offset: 0x1C2EA4, size: 0x8, addend: 0x0, symName: _ggml_elu_inplace, symObjAddr: 0x3A88, symBinAddr: 0x888CC, symSize: 0x8 }
  - { offset: 0x1C2EB8, size: 0x8, addend: 0x0, symName: _ggml_elu_inplace, symObjAddr: 0x3A88, symBinAddr: 0x888CC, symSize: 0x8 }
  - { offset: 0x1C2F17, size: 0x8, addend: 0x0, symName: _ggml_relu, symObjAddr: 0x3A90, symBinAddr: 0x888D4, symSize: 0x10C }
  - { offset: 0x1C30EB, size: 0x8, addend: 0x0, symName: _ggml_relu_inplace, symObjAddr: 0x3B9C, symBinAddr: 0x889E0, symSize: 0x8 }
  - { offset: 0x1C30FF, size: 0x8, addend: 0x0, symName: _ggml_relu_inplace, symObjAddr: 0x3B9C, symBinAddr: 0x889E0, symSize: 0x8 }
  - { offset: 0x1C315E, size: 0x8, addend: 0x0, symName: _ggml_leaky_relu, symObjAddr: 0x3BA4, symBinAddr: 0x889E8, symSize: 0xCC }
  - { offset: 0x1C32EC, size: 0x8, addend: 0x0, symName: _ggml_sigmoid, symObjAddr: 0x3C70, symBinAddr: 0x88AB4, symSize: 0x10C }
  - { offset: 0x1C32FF, size: 0x8, addend: 0x0, symName: _ggml_sigmoid, symObjAddr: 0x3C70, symBinAddr: 0x88AB4, symSize: 0x10C }
  - { offset: 0x1C34D3, size: 0x8, addend: 0x0, symName: _ggml_sigmoid_inplace, symObjAddr: 0x3D7C, symBinAddr: 0x88BC0, symSize: 0x8 }
  - { offset: 0x1C34E7, size: 0x8, addend: 0x0, symName: _ggml_sigmoid_inplace, symObjAddr: 0x3D7C, symBinAddr: 0x88BC0, symSize: 0x8 }
  - { offset: 0x1C3546, size: 0x8, addend: 0x0, symName: _ggml_gelu, symObjAddr: 0x3D84, symBinAddr: 0x88BC8, symSize: 0x10C }
  - { offset: 0x1C371A, size: 0x8, addend: 0x0, symName: _ggml_gelu_inplace, symObjAddr: 0x3E90, symBinAddr: 0x88CD4, symSize: 0x8 }
  - { offset: 0x1C372E, size: 0x8, addend: 0x0, symName: _ggml_gelu_inplace, symObjAddr: 0x3E90, symBinAddr: 0x88CD4, symSize: 0x8 }
  - { offset: 0x1C378D, size: 0x8, addend: 0x0, symName: _ggml_gelu_quick, symObjAddr: 0x3E98, symBinAddr: 0x88CDC, symSize: 0x10C }
  - { offset: 0x1C3961, size: 0x8, addend: 0x0, symName: _ggml_gelu_quick_inplace, symObjAddr: 0x3FA4, symBinAddr: 0x88DE8, symSize: 0x8 }
  - { offset: 0x1C3975, size: 0x8, addend: 0x0, symName: _ggml_gelu_quick_inplace, symObjAddr: 0x3FA4, symBinAddr: 0x88DE8, symSize: 0x8 }
  - { offset: 0x1C39D4, size: 0x8, addend: 0x0, symName: _ggml_silu, symObjAddr: 0x3FAC, symBinAddr: 0x88DF0, symSize: 0x10C }
  - { offset: 0x1C3BA8, size: 0x8, addend: 0x0, symName: _ggml_silu_inplace, symObjAddr: 0x40B8, symBinAddr: 0x88EFC, symSize: 0x8 }
  - { offset: 0x1C3BBC, size: 0x8, addend: 0x0, symName: _ggml_silu_inplace, symObjAddr: 0x40B8, symBinAddr: 0x88EFC, symSize: 0x8 }
  - { offset: 0x1C3C1B, size: 0x8, addend: 0x0, symName: _ggml_silu_back, symObjAddr: 0x40C0, symBinAddr: 0x88F04, symSize: 0x44 }
  - { offset: 0x1C3CED, size: 0x8, addend: 0x0, symName: _ggml_hardswish, symObjAddr: 0x4104, symBinAddr: 0x88F48, symSize: 0x10C }
  - { offset: 0x1C3EC1, size: 0x8, addend: 0x0, symName: _ggml_hardsigmoid, symObjAddr: 0x4210, symBinAddr: 0x89054, symSize: 0x10C }
  - { offset: 0x1C3ED5, size: 0x8, addend: 0x0, symName: _ggml_hardsigmoid, symObjAddr: 0x4210, symBinAddr: 0x89054, symSize: 0x10C }
  - { offset: 0x1C40A9, size: 0x8, addend: 0x0, symName: _ggml_exp, symObjAddr: 0x431C, symBinAddr: 0x89160, symSize: 0x10C }
  - { offset: 0x1C40BD, size: 0x8, addend: 0x0, symName: _ggml_exp, symObjAddr: 0x431C, symBinAddr: 0x89160, symSize: 0x10C }
  - { offset: 0x1C4291, size: 0x8, addend: 0x0, symName: _ggml_exp_inplace, symObjAddr: 0x4428, symBinAddr: 0x8926C, symSize: 0x8 }
  - { offset: 0x1C42A5, size: 0x8, addend: 0x0, symName: _ggml_exp_inplace, symObjAddr: 0x4428, symBinAddr: 0x8926C, symSize: 0x8 }
  - { offset: 0x1C4354, size: 0x8, addend: 0x0, symName: _ggml_norm, symObjAddr: 0x4430, symBinAddr: 0x89274, symSize: 0x80 }
  - { offset: 0x1C448C, size: 0x8, addend: 0x0, symName: _ggml_norm_inplace, symObjAddr: 0x44B0, symBinAddr: 0x892F4, symSize: 0x8C }
  - { offset: 0x1C449F, size: 0x8, addend: 0x0, symName: _ggml_norm_inplace, symObjAddr: 0x44B0, symBinAddr: 0x892F4, symSize: 0x8C }
  - { offset: 0x1C4634, size: 0x8, addend: 0x0, symName: _ggml_rms_norm, symObjAddr: 0x453C, symBinAddr: 0x89380, symSize: 0x80 }
  - { offset: 0x1C476C, size: 0x8, addend: 0x0, symName: _ggml_rms_norm_inplace, symObjAddr: 0x45BC, symBinAddr: 0x89400, symSize: 0x8C }
  - { offset: 0x1C477F, size: 0x8, addend: 0x0, symName: _ggml_rms_norm_inplace, symObjAddr: 0x45BC, symBinAddr: 0x89400, symSize: 0x8C }
  - { offset: 0x1C48C4, size: 0x8, addend: 0x0, symName: _ggml_rms_norm_back, symObjAddr: 0x4648, symBinAddr: 0x8948C, symSize: 0x84 }
  - { offset: 0x1C49B4, size: 0x8, addend: 0x0, symName: _ggml_group_norm, symObjAddr: 0x46CC, symBinAddr: 0x89510, symSize: 0x54 }
  - { offset: 0x1C4A52, size: 0x8, addend: 0x0, symName: _ggml_group_norm, symObjAddr: 0x46CC, symBinAddr: 0x89510, symSize: 0x54 }
  - { offset: 0x1C4BD9, size: 0x8, addend: 0x0, symName: _ggml_group_norm_inplace, symObjAddr: 0x4720, symBinAddr: 0x89564, symSize: 0x90 }
  - { offset: 0x1C4DA3, size: 0x8, addend: 0x0, symName: _ggml_mul_mat, symObjAddr: 0x47B0, symBinAddr: 0x895F4, symSize: 0x114 }
  - { offset: 0x1C4EF2, size: 0x8, addend: 0x0, symName: _ggml_mul_mat_set_prec, symObjAddr: 0x48C4, symBinAddr: 0x89708, symSize: 0x4C }
  - { offset: 0x1C4F6E, size: 0x8, addend: 0x0, symName: _ggml_mul_mat_id, symObjAddr: 0x4910, symBinAddr: 0x89754, symSize: 0x234 }
  - { offset: 0x1C4F82, size: 0x8, addend: 0x0, symName: _ggml_mul_mat_id, symObjAddr: 0x4910, symBinAddr: 0x89754, symSize: 0x234 }
  - { offset: 0x1C516A, size: 0x8, addend: 0x0, symName: _ggml_out_prod, symObjAddr: 0x4B44, symBinAddr: 0x89988, symSize: 0x114 }
  - { offset: 0x1C52B9, size: 0x8, addend: 0x0, symName: _ggml_scale, symObjAddr: 0x4C58, symBinAddr: 0x89A9C, symSize: 0x8 }
  - { offset: 0x1C5316, size: 0x8, addend: 0x0, symName: _ggml_scale_impl, symObjAddr: 0x4C60, symBinAddr: 0x89AA4, symSize: 0x138 }
  - { offset: 0x1C54EA, size: 0x8, addend: 0x0, symName: _ggml_scale_inplace, symObjAddr: 0x4D98, symBinAddr: 0x89BDC, symSize: 0x8 }
  - { offset: 0x1C54FD, size: 0x8, addend: 0x0, symName: _ggml_scale_inplace, symObjAddr: 0x4D98, symBinAddr: 0x89BDC, symSize: 0x8 }
  - { offset: 0x1C5576, size: 0x8, addend: 0x0, symName: _ggml_set, symObjAddr: 0x4DA0, symBinAddr: 0x89BE4, symSize: 0x8 }
  - { offset: 0x1C5648, size: 0x8, addend: 0x0, symName: _ggml_set_impl, symObjAddr: 0x4DA8, symBinAddr: 0x89BEC, symSize: 0x174 }
  - { offset: 0x1C5879, size: 0x8, addend: 0x0, symName: _ggml_set_inplace, symObjAddr: 0x4F1C, symBinAddr: 0x89D60, symSize: 0x8 }
  - { offset: 0x1C588C, size: 0x8, addend: 0x0, symName: _ggml_set_inplace, symObjAddr: 0x4F1C, symBinAddr: 0x89D60, symSize: 0x8 }
  - { offset: 0x1C595E, size: 0x8, addend: 0x0, symName: _ggml_set_1d, symObjAddr: 0x4F24, symBinAddr: 0x89D68, symSize: 0x14 }
  - { offset: 0x1C59ED, size: 0x8, addend: 0x0, symName: _ggml_set_1d_inplace, symObjAddr: 0x4F38, symBinAddr: 0x89D7C, symSize: 0x14 }
  - { offset: 0x1C5A7C, size: 0x8, addend: 0x0, symName: _ggml_set_2d, symObjAddr: 0x4F4C, symBinAddr: 0x89D90, symSize: 0x10 }
  - { offset: 0x1C5B22, size: 0x8, addend: 0x0, symName: _ggml_set_2d_inplace, symObjAddr: 0x4F5C, symBinAddr: 0x89DA0, symSize: 0x10 }
  - { offset: 0x1C5C0B, size: 0x8, addend: 0x0, symName: _ggml_cpy, symObjAddr: 0x4F6C, symBinAddr: 0x89DB0, symSize: 0x10C }
  - { offset: 0x1C5D5E, size: 0x8, addend: 0x0, symName: _ggml_cast, symObjAddr: 0x5078, symBinAddr: 0x89EBC, symSize: 0x5C }
  - { offset: 0x1C5D72, size: 0x8, addend: 0x0, symName: _ggml_cast, symObjAddr: 0x5078, symBinAddr: 0x89EBC, symSize: 0x5C }
  - { offset: 0x1C5E7F, size: 0x8, addend: 0x0, symName: _ggml_cont, symObjAddr: 0x50D4, symBinAddr: 0x89F18, symSize: 0x5C }
  - { offset: 0x1C6058, size: 0x8, addend: 0x0, symName: _ggml_cont_1d, symObjAddr: 0x5130, symBinAddr: 0x89F74, symSize: 0xDC }
  - { offset: 0x1C61E5, size: 0x8, addend: 0x0, symName: _ggml_cont_4d, symObjAddr: 0x520C, symBinAddr: 0x8A050, symSize: 0xDC }
  - { offset: 0x1C633C, size: 0x8, addend: 0x0, symName: _ggml_cont_2d, symObjAddr: 0x52E8, symBinAddr: 0x8A12C, symSize: 0xDC }
  - { offset: 0x1C64DD, size: 0x8, addend: 0x0, symName: _ggml_cont_3d, symObjAddr: 0x53C4, symBinAddr: 0x8A208, symSize: 0xDC }
  - { offset: 0x1C6692, size: 0x8, addend: 0x0, symName: _ggml_reshape, symObjAddr: 0x54A0, symBinAddr: 0x8A2E4, symSize: 0x158 }
  - { offset: 0x1C6836, size: 0x8, addend: 0x0, symName: _ggml_reshape_1d, symObjAddr: 0x55F8, symBinAddr: 0x8A43C, symSize: 0x170 }
  - { offset: 0x1C684A, size: 0x8, addend: 0x0, symName: _ggml_reshape_1d, symObjAddr: 0x55F8, symBinAddr: 0x8A43C, symSize: 0x170 }
  - { offset: 0x1C6A03, size: 0x8, addend: 0x0, symName: _ggml_reshape_2d, symObjAddr: 0x5768, symBinAddr: 0x8A5AC, symSize: 0x174 }
  - { offset: 0x1C6BCD, size: 0x8, addend: 0x0, symName: _ggml_reshape_3d, symObjAddr: 0x58DC, symBinAddr: 0x8A720, symSize: 0x17C }
  - { offset: 0x1C6DA8, size: 0x8, addend: 0x0, symName: _ggml_reshape_4d, symObjAddr: 0x5A58, symBinAddr: 0x8A89C, symSize: 0x180 }
  - { offset: 0x1C6FF1, size: 0x8, addend: 0x0, symName: _ggml_view_1d, symObjAddr: 0x5BD8, symBinAddr: 0x8AA1C, symSize: 0x90 }
  - { offset: 0x1C710D, size: 0x8, addend: 0x0, symName: _ggml_view_2d, symObjAddr: 0x5C68, symBinAddr: 0x8AAAC, symSize: 0xD4 }
  - { offset: 0x1C7120, size: 0x8, addend: 0x0, symName: _ggml_view_2d, symObjAddr: 0x5C68, symBinAddr: 0x8AAAC, symSize: 0xD4 }
  - { offset: 0x1C7288, size: 0x8, addend: 0x0, symName: _ggml_view_3d, symObjAddr: 0x5D3C, symBinAddr: 0x8AB80, symSize: 0xE8 }
  - { offset: 0x1C7412, size: 0x8, addend: 0x0, symName: _ggml_view_4d, symObjAddr: 0x5E24, symBinAddr: 0x8AC68, symSize: 0xDC }
  - { offset: 0x1C7560, size: 0x8, addend: 0x0, symName: _ggml_permute, symObjAddr: 0x5F00, symBinAddr: 0x8AD44, symSize: 0x300 }
  - { offset: 0x1C77C1, size: 0x8, addend: 0x0, symName: _ggml_transpose, symObjAddr: 0x6200, symBinAddr: 0x8B044, symSize: 0xAC }
  - { offset: 0x1C788D, size: 0x8, addend: 0x0, symName: _ggml_get_rows, symObjAddr: 0x62AC, symBinAddr: 0x8B0F0, symSize: 0x128 }
  - { offset: 0x1C7A73, size: 0x8, addend: 0x0, symName: _ggml_get_rows_back, symObjAddr: 0x63D4, symBinAddr: 0x8B218, symSize: 0x138 }
  - { offset: 0x1C7C13, size: 0x8, addend: 0x0, symName: _ggml_diag, symObjAddr: 0x650C, symBinAddr: 0x8B350, symSize: 0xB4 }
  - { offset: 0x1C7D58, size: 0x8, addend: 0x0, symName: _ggml_diag_mask_inf, symObjAddr: 0x65C0, symBinAddr: 0x8B404, symSize: 0x74 }
  - { offset: 0x1C7E90, size: 0x8, addend: 0x0, symName: _ggml_diag_mask_inf_inplace, symObjAddr: 0x6634, symBinAddr: 0x8B478, symSize: 0x80 }
  - { offset: 0x1C7EA3, size: 0x8, addend: 0x0, symName: _ggml_diag_mask_inf_inplace, symObjAddr: 0x6634, symBinAddr: 0x8B478, symSize: 0x80 }
  - { offset: 0x1C804E, size: 0x8, addend: 0x0, symName: _ggml_diag_mask_zero, symObjAddr: 0x66B4, symBinAddr: 0x8B4F8, symSize: 0x74 }
  - { offset: 0x1C8186, size: 0x8, addend: 0x0, symName: _ggml_diag_mask_zero_inplace, symObjAddr: 0x6728, symBinAddr: 0x8B56C, symSize: 0x80 }
  - { offset: 0x1C8199, size: 0x8, addend: 0x0, symName: _ggml_diag_mask_zero_inplace, symObjAddr: 0x6728, symBinAddr: 0x8B56C, symSize: 0x80 }
  - { offset: 0x1C82E7, size: 0x8, addend: 0x0, symName: _ggml_soft_max, symObjAddr: 0x67A8, symBinAddr: 0x8B5EC, symSize: 0x14 }
  - { offset: 0x1C834C, size: 0x8, addend: 0x0, symName: _ggml_soft_max_impl, symObjAddr: 0x67BC, symBinAddr: 0x8B600, symSize: 0x318 }
  - { offset: 0x1C86F0, size: 0x8, addend: 0x0, symName: _ggml_soft_max_inplace, symObjAddr: 0x6AD4, symBinAddr: 0x8B918, symSize: 0x14 }
  - { offset: 0x1C8704, size: 0x8, addend: 0x0, symName: _ggml_soft_max_inplace, symObjAddr: 0x6AD4, symBinAddr: 0x8B918, symSize: 0x14 }
  - { offset: 0x1C8769, size: 0x8, addend: 0x0, symName: _ggml_soft_max_ext, symObjAddr: 0x6AE8, symBinAddr: 0x8B92C, symSize: 0x8 }
  - { offset: 0x1C887D, size: 0x8, addend: 0x0, symName: _ggml_soft_max_ext_back, symObjAddr: 0x6AF0, symBinAddr: 0x8B934, symSize: 0x58 }
  - { offset: 0x1C89AF, size: 0x8, addend: 0x0, symName: _ggml_soft_max_ext_back_inplace, symObjAddr: 0x6B48, symBinAddr: 0x8B98C, symSize: 0x94 }
  - { offset: 0x1C8B01, size: 0x8, addend: 0x0, symName: _ggml_rope, symObjAddr: 0x6BDC, symBinAddr: 0x8BA20, symSize: 0x38 }
  - { offset: 0x1C8BB5, size: 0x8, addend: 0x0, symName: _ggml_rope_impl, symObjAddr: 0x6C14, symBinAddr: 0x8BA58, symSize: 0x29C }
  - { offset: 0x1C8E98, size: 0x8, addend: 0x0, symName: _ggml_rope_multi, symObjAddr: 0x6EB0, symBinAddr: 0x8BCF4, symSize: 0x264 }
  - { offset: 0x1C8EAC, size: 0x8, addend: 0x0, symName: _ggml_rope_multi, symObjAddr: 0x6EB0, symBinAddr: 0x8BCF4, symSize: 0x264 }
  - { offset: 0x1C9127, size: 0x8, addend: 0x0, symName: _ggml_rope_inplace, symObjAddr: 0x7114, symBinAddr: 0x8BF58, symSize: 0x38 }
  - { offset: 0x1C913B, size: 0x8, addend: 0x0, symName: _ggml_rope_inplace, symObjAddr: 0x7114, symBinAddr: 0x8BF58, symSize: 0x38 }
  - { offset: 0x1C91EF, size: 0x8, addend: 0x0, symName: _ggml_rope_ext, symObjAddr: 0x714C, symBinAddr: 0x8BF90, symSize: 0x8 }
  - { offset: 0x1C92FB, size: 0x8, addend: 0x0, symName: _ggml_rope_ext_inplace, symObjAddr: 0x7154, symBinAddr: 0x8BF98, symSize: 0x8 }
  - { offset: 0x1C9469, size: 0x8, addend: 0x0, symName: _ggml_rope_custom, symObjAddr: 0x715C, symBinAddr: 0x8BFA0, symSize: 0x18 }
  - { offset: 0x1C95CC, size: 0x8, addend: 0x0, symName: _ggml_rope_custom_inplace, symObjAddr: 0x7174, symBinAddr: 0x8BFB8, symSize: 0x18 }
  - { offset: 0x1C9772, size: 0x8, addend: 0x0, symName: _ggml_rope_yarn_corr_dims, symObjAddr: 0x718C, symBinAddr: 0x8BFD0, symSize: 0xB8 }
  - { offset: 0x1C992F, size: 0x8, addend: 0x0, symName: _ggml_rope_ext_back, symObjAddr: 0x7244, symBinAddr: 0x8C088, symSize: 0x20 }
  - { offset: 0x1C9AF2, size: 0x8, addend: 0x0, symName: _ggml_rope_multi_back, symObjAddr: 0x7264, symBinAddr: 0x8C0A8, symSize: 0x1C }
  - { offset: 0x1C9C28, size: 0x8, addend: 0x0, symName: _ggml_clamp, symObjAddr: 0x7280, symBinAddr: 0x8C0C4, symSize: 0x90 }
  - { offset: 0x1C9DAB, size: 0x8, addend: 0x0, symName: _ggml_im2col, symObjAddr: 0x7310, symBinAddr: 0x8C154, symSize: 0x27C }
  - { offset: 0x1CA00D, size: 0x8, addend: 0x0, symName: _ggml_im2col_back, symObjAddr: 0x758C, symBinAddr: 0x8C3D0, symSize: 0xA4 }
  - { offset: 0x1CA021, size: 0x8, addend: 0x0, symName: _ggml_im2col_back, symObjAddr: 0x758C, symBinAddr: 0x8C3D0, symSize: 0xA4 }
  - { offset: 0x1CA141, size: 0x8, addend: 0x0, symName: _ggml_conv_1d, symObjAddr: 0x7630, symBinAddr: 0x8C474, symSize: 0xAC }
  - { offset: 0x1CA154, size: 0x8, addend: 0x0, symName: _ggml_conv_1d, symObjAddr: 0x7630, symBinAddr: 0x8C474, symSize: 0xAC }
  - { offset: 0x1CA2E0, size: 0x8, addend: 0x0, symName: _ggml_conv_1d_ph, symObjAddr: 0x76DC, symBinAddr: 0x8C520, symSize: 0xB8 }
  - { offset: 0x1CA460, size: 0x8, addend: 0x0, symName: _ggml_conv_1d_dw, symObjAddr: 0x7794, symBinAddr: 0x8C5D8, symSize: 0xD0 }
  - { offset: 0x1CA622, size: 0x8, addend: 0x0, symName: _ggml_conv_1d_dw_ph, symObjAddr: 0x7864, symBinAddr: 0x8C6A8, symSize: 0xD8 }
  - { offset: 0x1CA816, size: 0x8, addend: 0x0, symName: _ggml_conv_transpose_1d, symObjAddr: 0x793C, symBinAddr: 0x8C780, symSize: 0x1D0 }
  - { offset: 0x1CAA5C, size: 0x8, addend: 0x0, symName: _ggml_conv_2d, symObjAddr: 0x7B0C, symBinAddr: 0x8C950, symSize: 0x110 }
  - { offset: 0x1CAD07, size: 0x8, addend: 0x0, symName: _ggml_conv_2d_sk_p0, symObjAddr: 0x7C1C, symBinAddr: 0x8CA60, symSize: 0x38 }
  - { offset: 0x1CAD8F, size: 0x8, addend: 0x0, symName: _ggml_conv_2d_s1_ph, symObjAddr: 0x7C54, symBinAddr: 0x8CA98, symSize: 0x4C }
  - { offset: 0x1CAE17, size: 0x8, addend: 0x0, symName: _ggml_conv_2d_dw, symObjAddr: 0x7CA0, symBinAddr: 0x8CAE4, symSize: 0x128 }
  - { offset: 0x1CB045, size: 0x8, addend: 0x0, symName: _ggml_conv_transpose_2d_p0, symObjAddr: 0x7DC8, symBinAddr: 0x8CC0C, symSize: 0xE4 }
  - { offset: 0x1CB21A, size: 0x8, addend: 0x0, symName: _ggml_pool_1d, symObjAddr: 0x7EAC, symBinAddr: 0x8CCF0, symSize: 0x108 }
  - { offset: 0x1CB3AD, size: 0x8, addend: 0x0, symName: _ggml_pool_2d, symObjAddr: 0x7FB4, symBinAddr: 0x8CDF8, symSize: 0x13C }
  - { offset: 0x1CB5AA, size: 0x8, addend: 0x0, symName: _ggml_pool_2d_back, symObjAddr: 0x80F0, symBinAddr: 0x8CF34, symSize: 0xC4 }
  - { offset: 0x1CB6BE, size: 0x8, addend: 0x0, symName: _ggml_upscale, symObjAddr: 0x81B4, symBinAddr: 0x8CFF8, symSize: 0x20 }
  - { offset: 0x1CB6D1, size: 0x8, addend: 0x0, symName: _ggml_upscale, symObjAddr: 0x81B4, symBinAddr: 0x8CFF8, symSize: 0x20 }
  - { offset: 0x1CB73B, size: 0x8, addend: 0x0, symName: _ggml_upscale_impl, symObjAddr: 0x81D4, symBinAddr: 0x8D018, symSize: 0x14C }
  - { offset: 0x1CB8EA, size: 0x8, addend: 0x0, symName: _ggml_upscale_ext, symObjAddr: 0x8320, symBinAddr: 0x8D164, symSize: 0x4 }
  - { offset: 0x1CB963, size: 0x8, addend: 0x0, symName: _ggml_upscale_ext, symObjAddr: 0x8320, symBinAddr: 0x8D164, symSize: 0x4 }
  - { offset: 0x1CB99F, size: 0x8, addend: 0x0, symName: _ggml_pad, symObjAddr: 0x8324, symBinAddr: 0x8D168, symSize: 0x94 }
  - { offset: 0x1CBAD0, size: 0x8, addend: 0x0, symName: _ggml_pad_reflect_1d, symObjAddr: 0x83B8, symBinAddr: 0x8D1FC, symSize: 0x248 }
  - { offset: 0x1CBD8E, size: 0x8, addend: 0x0, symName: _ggml_arange, symObjAddr: 0x8600, symBinAddr: 0x8D444, symSize: 0x98 }
  - { offset: 0x1CBF05, size: 0x8, addend: 0x0, symName: _ggml_timestep_embedding, symObjAddr: 0x8698, symBinAddr: 0x8D4DC, symSize: 0x9C }
  - { offset: 0x1CBF19, size: 0x8, addend: 0x0, symName: _ggml_timestep_embedding, symObjAddr: 0x8698, symBinAddr: 0x8D4DC, symSize: 0x9C }
  - { offset: 0x1CC066, size: 0x8, addend: 0x0, symName: _ggml_argsort, symObjAddr: 0x8734, symBinAddr: 0x8D578, symSize: 0x80 }
  - { offset: 0x1CC134, size: 0x8, addend: 0x0, symName: _ggml_top_k, symObjAddr: 0x87B4, symBinAddr: 0x8D5F8, symSize: 0x180 }
  - { offset: 0x1CC236, size: 0x8, addend: 0x0, symName: _ggml_top_k, symObjAddr: 0x87B4, symBinAddr: 0x8D5F8, symSize: 0x180 }
  - { offset: 0x1CC48D, size: 0x8, addend: 0x0, symName: _ggml_flash_attn_ext, symObjAddr: 0x8934, symBinAddr: 0x8D778, symSize: 0x2B8 }
  - { offset: 0x1CC73E, size: 0x8, addend: 0x0, symName: _ggml_flash_attn_ext_set_prec, symObjAddr: 0x8BEC, symBinAddr: 0x8DA30, symSize: 0x4C }
  - { offset: 0x1CC752, size: 0x8, addend: 0x0, symName: _ggml_flash_attn_ext_set_prec, symObjAddr: 0x8BEC, symBinAddr: 0x8DA30, symSize: 0x4C }
  - { offset: 0x1CC7CE, size: 0x8, addend: 0x0, symName: _ggml_flash_attn_ext_get_prec, symObjAddr: 0x8C38, symBinAddr: 0x8DA7C, symSize: 0x4C }
  - { offset: 0x1CC7E2, size: 0x8, addend: 0x0, symName: _ggml_flash_attn_ext_get_prec, symObjAddr: 0x8C38, symBinAddr: 0x8DA7C, symSize: 0x4C }
  - { offset: 0x1CC849, size: 0x8, addend: 0x0, symName: _ggml_flash_attn_back, symObjAddr: 0x8C84, symBinAddr: 0x8DAC8, symSize: 0x20 }
  - { offset: 0x1CC85D, size: 0x8, addend: 0x0, symName: _ggml_flash_attn_back, symObjAddr: 0x8C84, symBinAddr: 0x8DAC8, symSize: 0x20 }
  - { offset: 0x1CC8E5, size: 0x8, addend: 0x0, symName: _ggml_ssm_conv, symObjAddr: 0x8CA4, symBinAddr: 0x8DAE8, symSize: 0x160 }
  - { offset: 0x1CC980, size: 0x8, addend: 0x0, symName: _ggml_ssm_conv, symObjAddr: 0x8CA4, symBinAddr: 0x8DAE8, symSize: 0x160 }
  - { offset: 0x1CCB74, size: 0x8, addend: 0x0, symName: _ggml_ssm_scan, symObjAddr: 0x8E04, symBinAddr: 0x8DC48, symSize: 0x624 }
  - { offset: 0x1CD211, size: 0x8, addend: 0x0, symName: _ggml_win_part, symObjAddr: 0x9428, symBinAddr: 0x8E26C, symSize: 0x164 }
  - { offset: 0x1CD225, size: 0x8, addend: 0x0, symName: _ggml_win_part, symObjAddr: 0x9428, symBinAddr: 0x8E26C, symSize: 0x164 }
  - { offset: 0x1CD3C7, size: 0x8, addend: 0x0, symName: _ggml_win_unpart, symObjAddr: 0x958C, symBinAddr: 0x8E3D0, symSize: 0xE4 }
  - { offset: 0x1CD51F, size: 0x8, addend: 0x0, symName: _ggml_get_rel_pos, symObjAddr: 0x9670, symBinAddr: 0x8E4B4, symSize: 0xEC }
  - { offset: 0x1CD635, size: 0x8, addend: 0x0, symName: _ggml_add_rel_pos, symObjAddr: 0x975C, symBinAddr: 0x8E5A0, symSize: 0x8 }
  - { offset: 0x1CD6C2, size: 0x8, addend: 0x0, symName: _ggml_add_rel_pos_impl, symObjAddr: 0x9764, symBinAddr: 0x8E5A8, symSize: 0x3C4 }
  - { offset: 0x1CDB80, size: 0x8, addend: 0x0, symName: _ggml_add_rel_pos_inplace, symObjAddr: 0x9B28, symBinAddr: 0x8E96C, symSize: 0x8 }
  - { offset: 0x1CDB94, size: 0x8, addend: 0x0, symName: _ggml_add_rel_pos_inplace, symObjAddr: 0x9B28, symBinAddr: 0x8E96C, symSize: 0x8 }
  - { offset: 0x1CDC21, size: 0x8, addend: 0x0, symName: _ggml_rwkv_wkv6, symObjAddr: 0x9B30, symBinAddr: 0x8E974, symSize: 0x5B0 }
  - { offset: 0x1CE2B7, size: 0x8, addend: 0x0, symName: _ggml_gated_linear_attn, symObjAddr: 0xA0E0, symBinAddr: 0x8EF24, symSize: 0x50C }
  - { offset: 0x1CE92E, size: 0x8, addend: 0x0, symName: _ggml_map_unary_f32, symObjAddr: 0xA5EC, symBinAddr: 0x8F430, symSize: 0x78 }
  - { offset: 0x1CEA66, size: 0x8, addend: 0x0, symName: _ggml_map_unary_inplace_f32, symObjAddr: 0xA664, symBinAddr: 0x8F4A8, symSize: 0x84 }
  - { offset: 0x1CEA79, size: 0x8, addend: 0x0, symName: _ggml_map_unary_inplace_f32, symObjAddr: 0xA664, symBinAddr: 0x8F4A8, symSize: 0x84 }
  - { offset: 0x1CEBBD, size: 0x8, addend: 0x0, symName: _ggml_map_binary_f32, symObjAddr: 0xA6E8, symBinAddr: 0x8F52C, symSize: 0x8 }
  - { offset: 0x1CEC4A, size: 0x8, addend: 0x0, symName: _ggml_map_binary_impl_f32, symObjAddr: 0xA6F0, symBinAddr: 0x8F534, symSize: 0x130 }
  - { offset: 0x1CEE0D, size: 0x8, addend: 0x0, symName: _ggml_map_binary_inplace_f32, symObjAddr: 0xA820, symBinAddr: 0x8F664, symSize: 0x8 }
  - { offset: 0x1CEE20, size: 0x8, addend: 0x0, symName: _ggml_map_binary_inplace_f32, symObjAddr: 0xA820, symBinAddr: 0x8F664, symSize: 0x8 }
  - { offset: 0x1CEF25, size: 0x8, addend: 0x0, symName: _ggml_map_custom1_f32, symObjAddr: 0xA828, symBinAddr: 0x8F66C, symSize: 0x78 }
  - { offset: 0x1CF05D, size: 0x8, addend: 0x0, symName: _ggml_map_custom1_inplace_f32, symObjAddr: 0xA8A0, symBinAddr: 0x8F6E4, symSize: 0x84 }
  - { offset: 0x1CF070, size: 0x8, addend: 0x0, symName: _ggml_map_custom1_inplace_f32, symObjAddr: 0xA8A0, symBinAddr: 0x8F6E4, symSize: 0x84 }
  - { offset: 0x1CF23F, size: 0x8, addend: 0x0, symName: _ggml_map_custom2_f32, symObjAddr: 0xA924, symBinAddr: 0x8F768, symSize: 0x84 }
  - { offset: 0x1CF392, size: 0x8, addend: 0x0, symName: _ggml_map_custom2_inplace_f32, symObjAddr: 0xA9A8, symBinAddr: 0x8F7EC, symSize: 0x90 }
  - { offset: 0x1CF3A5, size: 0x8, addend: 0x0, symName: _ggml_map_custom2_inplace_f32, symObjAddr: 0xA9A8, symBinAddr: 0x8F7EC, symSize: 0x90 }
  - { offset: 0x1CF5A0, size: 0x8, addend: 0x0, symName: _ggml_map_custom3_f32, symObjAddr: 0xAA38, symBinAddr: 0x8F87C, symSize: 0x8C }
  - { offset: 0x1CF70E, size: 0x8, addend: 0x0, symName: _ggml_map_custom3_inplace_f32, symObjAddr: 0xAAC4, symBinAddr: 0x8F908, symSize: 0x98 }
  - { offset: 0x1CF721, size: 0x8, addend: 0x0, symName: _ggml_map_custom3_inplace_f32, symObjAddr: 0xAAC4, symBinAddr: 0x8F908, symSize: 0x98 }
  - { offset: 0x1CF979, size: 0x8, addend: 0x0, symName: _ggml_map_custom1, symObjAddr: 0xAB5C, symBinAddr: 0x8F9A0, symSize: 0xC4 }
  - { offset: 0x1CFB03, size: 0x8, addend: 0x0, symName: _ggml_map_custom1_inplace, symObjAddr: 0xAC20, symBinAddr: 0x8FA64, symSize: 0xD0 }
  - { offset: 0x1CFB16, size: 0x8, addend: 0x0, symName: _ggml_map_custom1_inplace, symObjAddr: 0xAC20, symBinAddr: 0x8FA64, symSize: 0xD0 }
  - { offset: 0x1CFC91, size: 0x8, addend: 0x0, symName: _ggml_map_custom2, symObjAddr: 0xACF0, symBinAddr: 0x8FB34, symSize: 0xD0 }
  - { offset: 0x1CFD9A, size: 0x8, addend: 0x0, symName: _ggml_map_custom2, symObjAddr: 0xACF0, symBinAddr: 0x8FB34, symSize: 0xD0 }
  - { offset: 0x1CFF3F, size: 0x8, addend: 0x0, symName: _ggml_map_custom2_inplace, symObjAddr: 0xADC0, symBinAddr: 0x8FC04, symSize: 0xDC }
  - { offset: 0x1CFF52, size: 0x8, addend: 0x0, symName: _ggml_map_custom2_inplace, symObjAddr: 0xADC0, symBinAddr: 0x8FC04, symSize: 0xDC }
  - { offset: 0x1D00E8, size: 0x8, addend: 0x0, symName: _ggml_map_custom3, symObjAddr: 0xAE9C, symBinAddr: 0x8FCE0, symSize: 0xD8 }
  - { offset: 0x1D0204, size: 0x8, addend: 0x0, symName: _ggml_map_custom3, symObjAddr: 0xAE9C, symBinAddr: 0x8FCE0, symSize: 0xD8 }
  - { offset: 0x1D03C4, size: 0x8, addend: 0x0, symName: _ggml_map_custom3_inplace, symObjAddr: 0xAF74, symBinAddr: 0x8FDB8, symSize: 0xE4 }
  - { offset: 0x1D03D7, size: 0x8, addend: 0x0, symName: _ggml_map_custom3_inplace, symObjAddr: 0xAF74, symBinAddr: 0x8FDB8, symSize: 0xE4 }
  - { offset: 0x1D0588, size: 0x8, addend: 0x0, symName: _ggml_cross_entropy_loss, symObjAddr: 0xB058, symBinAddr: 0x8FE9C, symSize: 0xB8 }
  - { offset: 0x1D059C, size: 0x8, addend: 0x0, symName: _ggml_cross_entropy_loss, symObjAddr: 0xB058, symBinAddr: 0x8FE9C, symSize: 0xB8 }
  - { offset: 0x1D06C2, size: 0x8, addend: 0x0, symName: _ggml_cross_entropy_loss_back, symObjAddr: 0xB110, symBinAddr: 0x8FF54, symSize: 0x114 }
  - { offset: 0x1D06D6, size: 0x8, addend: 0x0, symName: _ggml_cross_entropy_loss_back, symObjAddr: 0xB110, symBinAddr: 0x8FF54, symSize: 0x114 }
  - { offset: 0x1D082F, size: 0x8, addend: 0x0, symName: _ggml_opt_step_adamw, symObjAddr: 0xB224, symBinAddr: 0x90068, symSize: 0x248 }
  - { offset: 0x1D0843, size: 0x8, addend: 0x0, symName: _ggml_opt_step_adamw, symObjAddr: 0xB224, symBinAddr: 0x90068, symSize: 0x248 }
  - { offset: 0x1D0A5C, size: 0x8, addend: 0x0, symName: _ggml_hash_set_new, symObjAddr: 0xB46C, symBinAddr: 0x902B0, symSize: 0x184 }
  - { offset: 0x1D0B13, size: 0x8, addend: 0x0, symName: _ggml_hash_set_new, symObjAddr: 0xB46C, symBinAddr: 0x902B0, symSize: 0x184 }
  - { offset: 0x1D0C99, size: 0x8, addend: 0x0, symName: _ggml_hash_size, symObjAddr: 0xB5F0, symBinAddr: 0x90434, symSize: 0x48 }
  - { offset: 0x1D0CAD, size: 0x8, addend: 0x0, symName: _ggml_hash_set_reset, symObjAddr: 0xB638, symBinAddr: 0x9047C, symSize: 0x18 }
  - { offset: 0x1D0CEB, size: 0x8, addend: 0x0, symName: _ggml_hash_set_free, symObjAddr: 0xB650, symBinAddr: 0x90494, symSize: 0x28 }
  - { offset: 0x1D0D7C, size: 0x8, addend: 0x0, symName: _ggml_build_forward_expand, symObjAddr: 0xB678, symBinAddr: 0x904BC, symSize: 0x7C }
  - { offset: 0x1D0E08, size: 0x8, addend: 0x0, symName: _ggml_build_backward_expand, symObjAddr: 0xB6F4, symBinAddr: 0x90538, symSize: 0x21F8 }
  - { offset: 0x1D0E1C, size: 0x8, addend: 0x0, symName: _ggml_visit_parents, symObjAddr: 0xFDA8, symBinAddr: 0x94BEC, symSize: 0x314 }
  - { offset: 0x1D1072, size: 0x8, addend: 0x0, symName: _ggml_add_or_set, symObjAddr: 0x100BC, symBinAddr: 0x94F00, symSize: 0x110 }
  - { offset: 0x1D1C0F, size: 0x8, addend: 0x0, symName: _ggml_build_backward_expand, symObjAddr: 0xB6F4, symBinAddr: 0x90538, symSize: 0x21F8 }
  - { offset: 0x1D4ABE, size: 0x8, addend: 0x0, symName: _ggml_graph_overhead_custom, symObjAddr: 0xD8EC, symBinAddr: 0x92730, symSize: 0x88 }
  - { offset: 0x1D4AD2, size: 0x8, addend: 0x0, symName: _ggml_add_or_set, symObjAddr: 0x100BC, symBinAddr: 0x94F00, symSize: 0x110 }
  - { offset: 0x1D4BF6, size: 0x8, addend: 0x0, symName: _ggml_sub_or_set, symObjAddr: 0x101CC, symBinAddr: 0x95010, symSize: 0x1F8 }
  - { offset: 0x1D4C0A, size: 0x8, addend: 0x0, symName: _ggml_sub_or_set, symObjAddr: 0x101CC, symBinAddr: 0x95010, symSize: 0x1F8 }
  - { offset: 0x1D4F0A, size: 0x8, addend: 0x0, symName: _ggml_add1_or_set, symObjAddr: 0x103C4, symBinAddr: 0x95208, symSize: 0x11C }
  - { offset: 0x1D4F1E, size: 0x8, addend: 0x0, symName: _ggml_add1_or_set, symObjAddr: 0x103C4, symBinAddr: 0x95208, symSize: 0x11C }
  - { offset: 0x1D50FF, size: 0x8, addend: 0x0, symName: _ggml_graph_overhead_custom, symObjAddr: 0xD8EC, symBinAddr: 0x92730, symSize: 0x88 }
  - { offset: 0x1D5296, size: 0x8, addend: 0x0, symName: _ggml_graph_overhead, symObjAddr: 0xD974, symBinAddr: 0x927B8, symSize: 0x64 }
  - { offset: 0x1D53C8, size: 0x8, addend: 0x0, symName: _ggml_new_graph_custom, symObjAddr: 0xD9D8, symBinAddr: 0x9281C, symSize: 0x22C }
  - { offset: 0x1D57E9, size: 0x8, addend: 0x0, symName: _ggml_new_graph, symObjAddr: 0xDC04, symBinAddr: 0x92A48, symSize: 0xC }
  - { offset: 0x1D5839, size: 0x8, addend: 0x0, symName: _ggml_graph_view, symObjAddr: 0xDC10, symBinAddr: 0x92A54, symSize: 0x30 }
  - { offset: 0x1D58F2, size: 0x8, addend: 0x0, symName: _ggml_graph_cpy, symObjAddr: 0xDC40, symBinAddr: 0x92A84, symSize: 0x420 }
  - { offset: 0x1D5CB7, size: 0x8, addend: 0x0, symName: _ggml_graph_dup, symObjAddr: 0xE060, symBinAddr: 0x92EA4, symSize: 0x44 }
  - { offset: 0x1D5CCB, size: 0x8, addend: 0x0, symName: _ggml_graph_dup, symObjAddr: 0xE060, symBinAddr: 0x92EA4, symSize: 0x44 }
  - { offset: 0x1D5D4E, size: 0x8, addend: 0x0, symName: _ggml_set_zero, symObjAddr: 0xE0A4, symBinAddr: 0x92EE8, symSize: 0x194 }
  - { offset: 0x1D5EB6, size: 0x8, addend: 0x0, symName: _ggml_graph_reset, symObjAddr: 0xE238, symBinAddr: 0x9307C, symSize: 0x210 }
  - { offset: 0x1D5F21, size: 0x8, addend: 0x0, symName: _ggml_graph_reset, symObjAddr: 0xE238, symBinAddr: 0x9307C, symSize: 0x210 }
  - { offset: 0x1D6117, size: 0x8, addend: 0x0, symName: _ggml_graph_get_grad_acc, symObjAddr: 0xE448, symBinAddr: 0x9328C, symSize: 0x70 }
  - { offset: 0x1D614C, size: 0x8, addend: 0x0, symName: _ggml_graph_get_grad_acc, symObjAddr: 0xE448, symBinAddr: 0x9328C, symSize: 0x70 }
  - { offset: 0x1D6180, size: 0x8, addend: 0x0, symName: _ggml_graph_get_grad_acc, symObjAddr: 0xE448, symBinAddr: 0x9328C, symSize: 0x70 }
  - { offset: 0x1D61BC, size: 0x8, addend: 0x0, symName: _ggml_graph_get_grad_acc, symObjAddr: 0xE448, symBinAddr: 0x9328C, symSize: 0x70 }
  - { offset: 0x1D61FE, size: 0x8, addend: 0x0, symName: _ggml_graph_clear, symObjAddr: 0xE4B8, symBinAddr: 0x932FC, symSize: 0x1C }
  - { offset: 0x1D6267, size: 0x8, addend: 0x0, symName: _ggml_graph_size, symObjAddr: 0xE4D4, symBinAddr: 0x93318, symSize: 0x8 }
  - { offset: 0x1D6294, size: 0x8, addend: 0x0, symName: _ggml_graph_node, symObjAddr: 0xE4DC, symBinAddr: 0x93320, symSize: 0x80 }
  - { offset: 0x1D62EC, size: 0x8, addend: 0x0, symName: _ggml_graph_nodes, symObjAddr: 0xE55C, symBinAddr: 0x933A0, symSize: 0x8 }
  - { offset: 0x1D6300, size: 0x8, addend: 0x0, symName: _ggml_graph_nodes, symObjAddr: 0xE55C, symBinAddr: 0x933A0, symSize: 0x8 }
  - { offset: 0x1D632D, size: 0x8, addend: 0x0, symName: _ggml_graph_n_nodes, symObjAddr: 0xE564, symBinAddr: 0x933A8, symSize: 0x8 }
  - { offset: 0x1D635A, size: 0x8, addend: 0x0, symName: _ggml_graph_add_node, symObjAddr: 0xE56C, symBinAddr: 0x933B0, symSize: 0x5C }
  - { offset: 0x1D6397, size: 0x8, addend: 0x0, symName: _ggml_graph_get_tensor, symObjAddr: 0xE5C8, symBinAddr: 0x9340C, symSize: 0xB4 }
  - { offset: 0x1D63AB, size: 0x8, addend: 0x0, symName: _ggml_graph_get_tensor, symObjAddr: 0xE5C8, symBinAddr: 0x9340C, symSize: 0xB4 }
  - { offset: 0x1D64A5, size: 0x8, addend: 0x0, symName: _ggml_graph_get_grad, symObjAddr: 0xE67C, symBinAddr: 0x934C0, symSize: 0x70 }
  - { offset: 0x1D64D9, size: 0x8, addend: 0x0, symName: _ggml_graph_get_grad, symObjAddr: 0xE67C, symBinAddr: 0x934C0, symSize: 0x70 }
  - { offset: 0x1D6515, size: 0x8, addend: 0x0, symName: _ggml_graph_get_grad, symObjAddr: 0xE67C, symBinAddr: 0x934C0, symSize: 0x70 }
  - { offset: 0x1D6573, size: 0x8, addend: 0x0, symName: _ggml_graph_print, symObjAddr: 0xE6EC, symBinAddr: 0x93530, symSize: 0x1DC }
  - { offset: 0x1D691C, size: 0x8, addend: 0x0, symName: _ggml_graph_dump_dot, symObjAddr: 0xE8C8, symBinAddr: 0x9370C, symSize: 0xB30 }
  - { offset: 0x1D73B9, size: 0x8, addend: 0x0, symName: _ggml_set_input, symObjAddr: 0xF3F8, symBinAddr: 0x9423C, symSize: 0x10 }
  - { offset: 0x1D73E0, size: 0x8, addend: 0x0, symName: _ggml_set_output, symObjAddr: 0xF408, symBinAddr: 0x9424C, symSize: 0x10 }
  - { offset: 0x1D7407, size: 0x8, addend: 0x0, symName: _ggml_set_param, symObjAddr: 0xF418, symBinAddr: 0x9425C, symSize: 0x10 }
  - { offset: 0x1D743D, size: 0x8, addend: 0x0, symName: _ggml_set_loss, symObjAddr: 0xF428, symBinAddr: 0x9426C, symSize: 0xA4 }
  - { offset: 0x1D749F, size: 0x8, addend: 0x0, symName: _ggml_quantize_init, symObjAddr: 0xF4CC, symBinAddr: 0x94310, symSize: 0x7C }
  - { offset: 0x1D74B3, size: 0x8, addend: 0x0, symName: _ggml_quantize_init, symObjAddr: 0xF4CC, symBinAddr: 0x94310, symSize: 0x7C }
  - { offset: 0x1D756C, size: 0x8, addend: 0x0, symName: _ggml_quantize_free, symObjAddr: 0xF548, symBinAddr: 0x9438C, symSize: 0x34 }
  - { offset: 0x1D7614, size: 0x8, addend: 0x0, symName: _ggml_quantize_requires_imatrix, symObjAddr: 0xF57C, symBinAddr: 0x943C0, symSize: 0x14 }
  - { offset: 0x1D76E8, size: 0x8, addend: 0x0, symName: _ggml_quantize_chunk, symObjAddr: 0xF590, symBinAddr: 0x943D4, symSize: 0x6D0 }
  - { offset: 0x1D7CDF, size: 0x8, addend: 0x0, symName: _ggml_log_set, symObjAddr: 0xFC60, symBinAddr: 0x94AA4, symSize: 0x24 }
  - { offset: 0x1D807A, size: 0x8, addend: 0x0, symName: _ggml_log_set, symObjAddr: 0xFC60, symBinAddr: 0x94AA4, symSize: 0x24 }
  - { offset: 0x1D80B0, size: 0x8, addend: 0x0, symName: _ggml_threadpool_params_init, symObjAddr: 0xFC84, symBinAddr: 0x94AC8, symSize: 0x5C }
  - { offset: 0x1D8174, size: 0x8, addend: 0x0, symName: _ggml_threadpool_params_default, symObjAddr: 0xFCE0, symBinAddr: 0x94B24, symSize: 0x5C }
  - { offset: 0x1D81B2, size: 0x8, addend: 0x0, symName: _ggml_threadpool_params_default, symObjAddr: 0xFCE0, symBinAddr: 0x94B24, symSize: 0x5C }
  - { offset: 0x1D81D6, size: 0x8, addend: 0x0, symName: _ggml_threadpool_params_match, symObjAddr: 0xFD3C, symBinAddr: 0x94B80, symSize: 0x6C }
  - { offset: 0x1D83D9, size: 0x8, addend: 0x0, symName: __MergedGlobals, symObjAddr: 0x1F08E8, symBinAddr: 0x190650, symSize: 0x0 }
  - { offset: 0x1FAB19, size: 0x8, addend: 0x0, symName: __MergedGlobals, symObjAddr: 0x1F08E8, symBinAddr: 0x190650, symSize: 0x0 }
  - { offset: 0x1FCC64, size: 0x8, addend: 0x0, symName: __ZNSt3__13mapI9gguf_typemNS_4lessIS1_EENS_9allocatorINS_4pairIKS1_mEEEEED1B8ne180100Ev, symObjAddr: 0x0, symBinAddr: 0x95324, symSize: 0x28 }
  - { offset: 0x1FCD22, size: 0x8, addend: 0x0, symName: __ZNSt3__16__treeINS_12__value_typeI9gguf_typemEENS_19__map_value_compareIS2_S3_NS_4lessIS2_EELb1EEENS_9allocatorIS3_EEE7destroyEPNS_11__tree_nodeIS3_PvEE, symObjAddr: 0xBC18, symBinAddr: 0xA0C7C, symSize: 0x40 }
  - { offset: 0x1FCEE7, size: 0x8, addend: 0x0, symName: __ZNSt3__13mapI9gguf_typePKcNS_4lessIS1_EENS_9allocatorINS_4pairIKS1_S3_EEEEED1B8ne180100Ev, symObjAddr: 0x28, symBinAddr: 0x9534C, symSize: 0x28 }
  - { offset: 0x1FCFA5, size: 0x8, addend: 0x0, symName: __ZNSt3__16__treeINS_12__value_typeI9gguf_typePKcEENS_19__map_value_compareIS2_S5_NS_4lessIS2_EELb1EEENS_9allocatorIS5_EEE7destroyEPNS_11__tree_nodeIS5_PvEE, symObjAddr: 0xBEF8, symBinAddr: 0xA0F5C, symSize: 0x40 }
  - { offset: 0x1FD22D, size: 0x8, addend: 0x0, symName: __Z14gguf_type_size9gguf_type, symObjAddr: 0x50, symBinAddr: 0x95374, symSize: 0x58 }
  - { offset: 0x1FD259, size: 0x8, addend: 0x0, symName: __Z14gguf_type_size9gguf_type, symObjAddr: 0x50, symBinAddr: 0x95374, symSize: 0x58 }
  - { offset: 0x1FD26E, size: 0x8, addend: 0x0, symName: __Z14gguf_type_size9gguf_type, symObjAddr: 0x50, symBinAddr: 0x95374, symSize: 0x58 }
  - { offset: 0x1FD28E, size: 0x8, addend: 0x0, symName: __Z14gguf_type_size9gguf_type, symObjAddr: 0x50, symBinAddr: 0x95374, symSize: 0x58 }
  - { offset: 0x1FD442, size: 0x8, addend: 0x0, symName: _gguf_init_empty, symObjAddr: 0xA8, symBinAddr: 0x953CC, symSize: 0x3C }
  - { offset: 0x1FE4D2, size: 0x8, addend: 0x0, symName: __Z24gguf_init_from_file_implP7__sFILE16gguf_init_params, symObjAddr: 0xE4, symBinAddr: 0x95408, symSize: 0x1324 }
  - { offset: 0x20086F, size: 0x8, addend: 0x0, symName: __ZNSt3__16vectorI7gguf_kvNS_9allocatorIS1_EEE7__clearB8ne180100Ev, symObjAddr: 0xA7AC, symBinAddr: 0x9FA60, symSize: 0xB8 }
  - { offset: 0x200E64, size: 0x8, addend: 0x0, symName: __Z24gguf_read_emplace_helperIhEbRK11gguf_readerRNSt3__16vectorI7gguf_kvNS3_9allocatorIS5_EEEERKNS3_12basic_stringIcNS3_11char_traitsIcEENS6_IcEEEEbm, symObjAddr: 0x145C, symBinAddr: 0x96780, symSize: 0x244 }
  - { offset: 0x2016E1, size: 0x8, addend: 0x0, symName: __Z24gguf_read_emplace_helperIxEbRK11gguf_readerRNSt3__16vectorI7gguf_kvNS3_9allocatorIS5_EEEERKNS3_12basic_stringIcNS3_11char_traitsIcEENS6_IcEEEEbm, symObjAddr: 0x2D60, symBinAddr: 0x98084, symSize: 0x270 }
  - { offset: 0x20203F, size: 0x8, addend: 0x0, symName: __Z24gguf_read_emplace_helperItEbRK11gguf_readerRNSt3__16vectorI7gguf_kvNS3_9allocatorIS5_EEEERKNS3_12basic_stringIcNS3_11char_traitsIcEENS6_IcEEEEbm, symObjAddr: 0x18E4, symBinAddr: 0x96C08, symSize: 0x270 }
  - { offset: 0x202995, size: 0x8, addend: 0x0, symName: __Z24gguf_read_emplace_helperIiEbRK11gguf_readerRNSt3__16vectorI7gguf_kvNS3_9allocatorIS5_EEEERKNS3_12basic_stringIcNS3_11char_traitsIcEENS6_IcEEEEbm, symObjAddr: 0x2034, symBinAddr: 0x97358, symSize: 0x270 }
  - { offset: 0x2032F3, size: 0x8, addend: 0x0, symName: __Z24gguf_read_emplace_helperIdEbRK11gguf_readerRNSt3__16vectorI7gguf_kvNS3_9allocatorIS5_EEEERKNS3_12basic_stringIcNS3_11char_traitsIcEENS6_IcEEEEbm, symObjAddr: 0x2FD0, symBinAddr: 0x982F4, symSize: 0x270 }
  - { offset: 0x203C52, size: 0x8, addend: 0x0, symName: __Z24gguf_read_emplace_helperIaEbRK11gguf_readerRNSt3__16vectorI7gguf_kvNS3_9allocatorIS5_EEEERKNS3_12basic_stringIcNS3_11char_traitsIcEENS6_IcEEEEbm, symObjAddr: 0x16A0, symBinAddr: 0x969C4, symSize: 0x244 }
  - { offset: 0x2044CF, size: 0x8, addend: 0x0, symName: __Z24gguf_read_emplace_helperIfEbRK11gguf_readerRNSt3__16vectorI7gguf_kvNS3_9allocatorIS5_EEEERKNS3_12basic_stringIcNS3_11char_traitsIcEENS6_IcEEEEbm, symObjAddr: 0x22A4, symBinAddr: 0x975C8, symSize: 0x270 }
  - { offset: 0x204E2E, size: 0x8, addend: 0x0, symName: __Z24gguf_read_emplace_helperIbEbRK11gguf_readerRNSt3__16vectorI7gguf_kvNS3_9allocatorIS5_EEEERKNS3_12basic_stringIcNS3_11char_traitsIcEENS6_IcEEEEbm, symObjAddr: 0x2514, symBinAddr: 0x97838, symSize: 0x2C0 }
  - { offset: 0x20577B, size: 0x8, addend: 0x0, symName: __Z24gguf_read_emplace_helperIsEbRK11gguf_readerRNSt3__16vectorI7gguf_kvNS3_9allocatorIS5_EEEERKNS3_12basic_stringIcNS3_11char_traitsIcEENS6_IcEEEEbm, symObjAddr: 0x1B54, symBinAddr: 0x96E78, symSize: 0x270 }
  - { offset: 0x2060D1, size: 0x8, addend: 0x0, symName: __Z24gguf_read_emplace_helperIjEbRK11gguf_readerRNSt3__16vectorI7gguf_kvNS3_9allocatorIS5_EEEERKNS3_12basic_stringIcNS3_11char_traitsIcEENS6_IcEEEEbm, symObjAddr: 0x1DC4, symBinAddr: 0x970E8, symSize: 0x270 }
  - { offset: 0x206A2F, size: 0x8, addend: 0x0, symName: __Z24gguf_read_emplace_helperIyEbRK11gguf_readerRNSt3__16vectorI7gguf_kvNS3_9allocatorIS5_EEEERKNS3_12basic_stringIcNS3_11char_traitsIcEENS6_IcEEEEbm, symObjAddr: 0x2AF0, symBinAddr: 0x97E14, symSize: 0x270 }
  - { offset: 0x20738D, size: 0x8, addend: 0x0, symName: __Z24gguf_read_emplace_helperINSt3__112basic_stringIcNS0_11char_traitsIcEENS0_9allocatorIcEEEEEbRK11gguf_readerRNS0_6vectorI7gguf_kvNS4_ISB_EEEERKS6_bm, symObjAddr: 0x27D4, symBinAddr: 0x97AF8, symSize: 0x31C }
  - { offset: 0x20805C, size: 0x8, addend: 0x0, symName: __ZNSt3__16vectorI16gguf_tensor_infoNS_9allocatorIS1_EEE9push_backB8ne180100ERKS1_, symObjAddr: 0x346C, symBinAddr: 0x98790, symSize: 0x164 }
  - { offset: 0x20856A, size: 0x8, addend: 0x0, symName: _gguf_init_from_file, symObjAddr: 0x35D0, symBinAddr: 0x988F4, symSize: 0xA0 }
  - { offset: 0x208575, size: 0x8, addend: 0x0, symName: _gguf_get_val_u32, symObjAddr: 0x32C4, symBinAddr: 0x985E8, symSize: 0x1A8 }
  - { offset: 0x208807, size: 0x8, addend: 0x0, symName: __ZNSt3__16vectorI16gguf_tensor_infoNS_9allocatorIS1_EEE9push_backB8ne180100ERKS1_, symObjAddr: 0x346C, symBinAddr: 0x98790, symSize: 0x164 }
  - { offset: 0x20890B, size: 0x8, addend: 0x0, symName: _gguf_free, symObjAddr: 0x1408, symBinAddr: 0x9672C, symSize: 0x54 }
  - { offset: 0x20905E, size: 0x8, addend: 0x0, symName: __ZNK11gguf_reader4readIhEEbRNSt3__16vectorIT_NS1_9allocatorIS3_EEEEm, symObjAddr: 0xBF38, symBinAddr: 0xA0F9C, symSize: 0x224 }
  - { offset: 0x20965B, size: 0x8, addend: 0x0, symName: __ZN7gguf_kvC2IhEERKNSt3__112basic_stringIcNS1_11char_traitsIcEENS1_9allocatorIcEEEERKNS1_6vectorIT_NS5_ISB_EEEE, symObjAddr: 0xC3C8, symBinAddr: 0xA1418, symSize: 0x164 }
  - { offset: 0x209C37, size: 0x8, addend: 0x0, symName: __ZN7gguf_kvC2IhEERKNSt3__112basic_stringIcNS1_11char_traitsIcEENS1_9allocatorIcEEEET_, symObjAddr: 0xC924, symBinAddr: 0xA18D4, symSize: 0xFC }
  - { offset: 0x20A0DF, size: 0x8, addend: 0x0, symName: __ZNSt3__16vectorI7gguf_kvNS_9allocatorIS1_EEE24__emplace_back_slow_pathIJRKNS_12basic_stringIcNS_11char_traitsIcEENS2_IcEEEERhEEEPS1_DpOT_, symObjAddr: 0xC6CC, symBinAddr: 0xA167C, symSize: 0x258 }
  - { offset: 0x20AE12, size: 0x8, addend: 0x0, symName: __ZNSt3__16vectorI7gguf_kvNS_9allocatorIS1_EEE24__emplace_back_slow_pathIJRKNS_12basic_stringIcNS_11char_traitsIcEENS2_IcEEEERNS0_IhNS2_IhEEEEEEEPS1_DpOT_, symObjAddr: 0xC170, symBinAddr: 0xA11C0, symSize: 0x258 }
  - { offset: 0x20BF91, size: 0x8, addend: 0x0, symName: __ZNK11gguf_reader4readIaEEbRNSt3__16vectorIT_NS1_9allocatorIS3_EEEEm, symObjAddr: 0xCA20, symBinAddr: 0xA19D0, symSize: 0x224 }
  - { offset: 0x20C572, size: 0x8, addend: 0x0, symName: __ZNSt3__16vectorI7gguf_kvNS_9allocatorIS1_EEE24__emplace_back_slow_pathIJRKNS_12basic_stringIcNS_11char_traitsIcEENS2_IcEEEERNS0_IaNS2_IaEEEEEEEPS1_DpOT_, symObjAddr: 0xCC44, symBinAddr: 0xA1BF4, symSize: 0x258 }
  - { offset: 0x20C58E, size: 0x8, addend: 0x0, symName: __ZN7gguf_kvC2IaEERKNSt3__112basic_stringIcNS1_11char_traitsIcEENS1_9allocatorIcEEEERKNS1_6vectorIT_NS5_ISB_EEEE, symObjAddr: 0xCE9C, symBinAddr: 0xA1E4C, symSize: 0x160 }
  - { offset: 0x20CB5E, size: 0x8, addend: 0x0, symName: __ZN7gguf_kvC2IaEERKNSt3__112basic_stringIcNS1_11char_traitsIcEENS1_9allocatorIcEEEET_, symObjAddr: 0xD254, symBinAddr: 0xA2204, symSize: 0x108 }
  - { offset: 0x20CFE9, size: 0x8, addend: 0x0, symName: __ZNSt3__16vectorI7gguf_kvNS_9allocatorIS1_EEE24__emplace_back_slow_pathIJRKNS_12basic_stringIcNS_11char_traitsIcEENS2_IcEEEERaEEEPS1_DpOT_, symObjAddr: 0xCFFC, symBinAddr: 0xA1FAC, symSize: 0x258 }
  - { offset: 0x20DD1C, size: 0x8, addend: 0x0, symName: __ZNSt3__16vectorI7gguf_kvNS_9allocatorIS1_EEE24__emplace_back_slow_pathIJRKNS_12basic_stringIcNS_11char_traitsIcEENS2_IcEEEERNS0_IaNS2_IaEEEEEEEPS1_DpOT_, symObjAddr: 0xCC44, symBinAddr: 0xA1BF4, symSize: 0x258 }
  - { offset: 0x20EF2C, size: 0x8, addend: 0x0, symName: __ZNSt3__16vectorItNS_9allocatorItEEE8__appendEm, symObjAddr: 0xD35C, symBinAddr: 0xA230C, symSize: 0x190 }
  - { offset: 0x20F3D0, size: 0x8, addend: 0x0, symName: __ZNKSt3__16vectorItNS_9allocatorItEEE20__throw_length_errorB8ne180100Ev, symObjAddr: 0xD4EC, symBinAddr: 0xA249C, symSize: 0x14 }
  - { offset: 0x20F3DB, size: 0x8, addend: 0x0, symName: __ZN7gguf_kvC2ItEERKNSt3__112basic_stringIcNS1_11char_traitsIcEENS1_9allocatorIcEEEERKNS1_6vectorIT_NS5_ISB_EEEE, symObjAddr: 0xD758, symBinAddr: 0xA2708, symSize: 0x168 }
  - { offset: 0x20F9AB, size: 0x8, addend: 0x0, symName: __ZN7gguf_kvC2ItEERKNSt3__112basic_stringIcNS1_11char_traitsIcEENS1_9allocatorIcEEEET_, symObjAddr: 0xDB18, symBinAddr: 0xA2AC8, symSize: 0x108 }
  - { offset: 0x20FE36, size: 0x8, addend: 0x0, symName: __ZNSt3__16vectorI7gguf_kvNS_9allocatorIS1_EEE24__emplace_back_slow_pathIJRKNS_12basic_stringIcNS_11char_traitsIcEENS2_IcEEEERNS0_ItNS2_ItEEEEEEEPS1_DpOT_, symObjAddr: 0xD500, symBinAddr: 0xA24B0, symSize: 0x258 }
  - { offset: 0x210B78, size: 0x8, addend: 0x0, symName: __ZNSt3__16vectorI7gguf_kvNS_9allocatorIS1_EEE24__emplace_back_slow_pathIJRKNS_12basic_stringIcNS_11char_traitsIcEENS2_IcEEEERtEEEPS1_DpOT_, symObjAddr: 0xD8C0, symBinAddr: 0xA2870, symSize: 0x258 }
  - { offset: 0x211D79, size: 0x8, addend: 0x0, symName: __ZNSt3__16vectorIsNS_9allocatorIsEEE8__appendEm, symObjAddr: 0xDC20, symBinAddr: 0xA2BD0, symSize: 0x190 }
  - { offset: 0x21221D, size: 0x8, addend: 0x0, symName: __ZNKSt3__16vectorIsNS_9allocatorIsEEE20__throw_length_errorB8ne180100Ev, symObjAddr: 0xDDB0, symBinAddr: 0xA2D60, symSize: 0x14 }
  - { offset: 0x212228, size: 0x8, addend: 0x0, symName: __ZN7gguf_kvC2IsEERKNSt3__112basic_stringIcNS1_11char_traitsIcEENS1_9allocatorIcEEEERKNS1_6vectorIT_NS5_ISB_EEEE, symObjAddr: 0xE01C, symBinAddr: 0xA2FCC, symSize: 0x168 }
  - { offset: 0x2127F8, size: 0x8, addend: 0x0, symName: __ZN7gguf_kvC2IsEERKNSt3__112basic_stringIcNS1_11char_traitsIcEENS1_9allocatorIcEEEET_, symObjAddr: 0xE3DC, symBinAddr: 0xA338C, symSize: 0x108 }
  - { offset: 0x212C83, size: 0x8, addend: 0x0, symName: __ZNSt3__16vectorI7gguf_kvNS_9allocatorIS1_EEE24__emplace_back_slow_pathIJRKNS_12basic_stringIcNS_11char_traitsIcEENS2_IcEEEERNS0_IsNS2_IsEEEEEEEPS1_DpOT_, symObjAddr: 0xDDC4, symBinAddr: 0xA2D74, symSize: 0x258 }
  - { offset: 0x2139C5, size: 0x8, addend: 0x0, symName: __ZNSt3__16vectorI7gguf_kvNS_9allocatorIS1_EEE24__emplace_back_slow_pathIJRKNS_12basic_stringIcNS_11char_traitsIcEENS2_IcEEEERsEEEPS1_DpOT_, symObjAddr: 0xE184, symBinAddr: 0xA3134, symSize: 0x258 }
  - { offset: 0x214B9C, size: 0x8, addend: 0x0, symName: __ZNSt3__16vectorIjNS_9allocatorIjEEE8__appendEm, symObjAddr: 0xE4E4, symBinAddr: 0xA3494, symSize: 0x19C }
  - { offset: 0x21504B, size: 0x8, addend: 0x0, symName: __ZN7gguf_kvC2IjEERKNSt3__112basic_stringIcNS1_11char_traitsIcEENS1_9allocatorIcEEEERKNS1_6vectorIT_NS5_ISB_EEEE, symObjAddr: 0xE8EC, symBinAddr: 0xA3888, symSize: 0x168 }
  - { offset: 0x21561B, size: 0x8, addend: 0x0, symName: __ZN7gguf_kvC2IjEERKNSt3__112basic_stringIcNS1_11char_traitsIcEENS1_9allocatorIcEEEET_, symObjAddr: 0xECAC, symBinAddr: 0xA3C48, symSize: 0x108 }
  - { offset: 0x215AA6, size: 0x8, addend: 0x0, symName: __ZNSt3__16vectorI7gguf_kvNS_9allocatorIS1_EEE24__emplace_back_slow_pathIJRKNS_12basic_stringIcNS_11char_traitsIcEENS2_IcEEEERNS0_IjNS2_IjEEEEEEEPS1_DpOT_, symObjAddr: 0xE694, symBinAddr: 0xA3630, symSize: 0x258 }
  - { offset: 0x2167E8, size: 0x8, addend: 0x0, symName: __ZNSt3__16vectorI7gguf_kvNS_9allocatorIS1_EEE24__emplace_back_slow_pathIJRKNS_12basic_stringIcNS_11char_traitsIcEENS2_IcEEEERjEEEPS1_DpOT_, symObjAddr: 0xEA54, symBinAddr: 0xA39F0, symSize: 0x258 }
  - { offset: 0x217C67, size: 0x8, addend: 0x0, symName: __ZN7gguf_kvC2IiEERKNSt3__112basic_stringIcNS1_11char_traitsIcEENS1_9allocatorIcEEEERKNS1_6vectorIT_NS5_ISB_EEEE, symObjAddr: 0xF1BC, symBinAddr: 0xA3FA8, symSize: 0x168 }
  - { offset: 0x218237, size: 0x8, addend: 0x0, symName: __ZN7gguf_kvC2IiEERKNSt3__112basic_stringIcNS1_11char_traitsIcEENS1_9allocatorIcEEEET_, symObjAddr: 0xF57C, symBinAddr: 0xA4368, symSize: 0x108 }
  - { offset: 0x2186C2, size: 0x8, addend: 0x0, symName: __ZNSt3__16vectorI7gguf_kvNS_9allocatorIS1_EEE24__emplace_back_slow_pathIJRKNS_12basic_stringIcNS_11char_traitsIcEENS2_IcEEEERNS0_IiNS2_IiEEEEEEEPS1_DpOT_, symObjAddr: 0xEF64, symBinAddr: 0xA3D50, symSize: 0x258 }
  - { offset: 0x219404, size: 0x8, addend: 0x0, symName: __ZNSt3__16vectorI7gguf_kvNS_9allocatorIS1_EEE24__emplace_back_slow_pathIJRKNS_12basic_stringIcNS_11char_traitsIcEENS2_IcEEEERiEEEPS1_DpOT_, symObjAddr: 0xF324, symBinAddr: 0xA4110, symSize: 0x258 }
  - { offset: 0x21A8AD, size: 0x8, addend: 0x0, symName: __ZN7gguf_kvC2IfEERKNSt3__112basic_stringIcNS1_11char_traitsIcEENS1_9allocatorIcEEEERKNS1_6vectorIT_NS5_ISB_EEEE, symObjAddr: 0xFA8C, symBinAddr: 0xA46C8, symSize: 0x168 }
  - { offset: 0x21AE7D, size: 0x8, addend: 0x0, symName: __ZN7gguf_kvC2IfEERKNSt3__112basic_stringIcNS1_11char_traitsIcEENS1_9allocatorIcEEEET_, symObjAddr: 0xFE4C, symBinAddr: 0xA4A88, symSize: 0x108 }
  - { offset: 0x21B308, size: 0x8, addend: 0x0, symName: __ZNSt3__16vectorI7gguf_kvNS_9allocatorIS1_EEE24__emplace_back_slow_pathIJRKNS_12basic_stringIcNS_11char_traitsIcEENS2_IcEEEERNS0_IfNS2_IfEEEEEEEPS1_DpOT_, symObjAddr: 0xF834, symBinAddr: 0xA4470, symSize: 0x258 }
  - { offset: 0x21C04A, size: 0x8, addend: 0x0, symName: __ZNSt3__16vectorI7gguf_kvNS_9allocatorIS1_EEE24__emplace_back_slow_pathIJRKNS_12basic_stringIcNS_11char_traitsIcEENS2_IcEEEERfEEEPS1_DpOT_, symObjAddr: 0xFBF4, symBinAddr: 0xA4830, symSize: 0x258 }
  - { offset: 0x21D25F, size: 0x8, addend: 0x0, symName: __ZNSt3__16vectorIbNS_9allocatorIbEEE6resizeEmb, symObjAddr: 0xFF54, symBinAddr: 0xA4B90, symSize: 0x268 }
  - { offset: 0x21DB7B, size: 0x8, addend: 0x0, symName: __ZN7gguf_kvC2IbEERKNSt3__112basic_stringIcNS1_11char_traitsIcEENS1_9allocatorIcEEEERKNS1_6vectorIT_NS5_ISB_EEEE, symObjAddr: 0x10528, symBinAddr: 0xA5164, symSize: 0x164 }
  - { offset: 0x21E1B1, size: 0x8, addend: 0x0, symName: __ZN7gguf_kvC2IbEERKNSt3__112basic_stringIcNS1_11char_traitsIcEENS1_9allocatorIcEEEET_, symObjAddr: 0x108E4, symBinAddr: 0xA5520, symSize: 0x108 }
  - { offset: 0x21E63C, size: 0x8, addend: 0x0, symName: __ZNSt3__16vectorI7gguf_kvNS_9allocatorIS1_EEE24__emplace_back_slow_pathIJRKNS_12basic_stringIcNS_11char_traitsIcEENS2_IcEEEERNS0_IbNS2_IbEEEEEEEPS1_DpOT_, symObjAddr: 0x102D0, symBinAddr: 0xA4F0C, symSize: 0x258 }
  - { offset: 0x21F37E, size: 0x8, addend: 0x0, symName: __ZNSt3__16vectorI7gguf_kvNS_9allocatorIS1_EEE24__emplace_back_slow_pathIJRKNS_12basic_stringIcNS_11char_traitsIcEENS2_IcEEEERbEEEPS1_DpOT_, symObjAddr: 0x1068C, symBinAddr: 0xA52C8, symSize: 0x258 }
  - { offset: 0x2204FD, size: 0x8, addend: 0x0, symName: __ZNK11gguf_reader4readINSt3__112basic_stringIcNS1_11char_traitsIcEENS1_9allocatorIcEEEEEEbRNS1_6vectorIT_NS5_IS9_EEEEm, symObjAddr: 0x109EC, symBinAddr: 0xA5628, symSize: 0x184 }
  - { offset: 0x2208C5, size: 0x8, addend: 0x0, symName: __ZN7gguf_kvC2ERKNSt3__112basic_stringIcNS0_11char_traitsIcEENS0_9allocatorIcEEEERKNS0_6vectorIS6_NS4_IS6_EEEE, symObjAddr: 0x11034, symBinAddr: 0xA5BF8, symSize: 0x120 }
  - { offset: 0x220C79, size: 0x8, addend: 0x0, symName: __ZN7gguf_kvC2ERKNSt3__112basic_stringIcNS0_11char_traitsIcEENS0_9allocatorIcEEEES8_, symObjAddr: 0x116B0, symBinAddr: 0xA6274, symSize: 0x104 }
  - { offset: 0x220FC2, size: 0x8, addend: 0x0, symName: __ZNSt3__16vectorI7gguf_kvNS_9allocatorIS1_EEE24__emplace_back_slow_pathIJRKNS_12basic_stringIcNS_11char_traitsIcEENS2_IcEEEERNS0_ISA_NS2_ISA_EEEEEEEPS1_DpOT_, symObjAddr: 0x10DDC, symBinAddr: 0xA59A0, symSize: 0x258 }
  - { offset: 0x221D04, size: 0x8, addend: 0x0, symName: __ZNSt3__16vectorI7gguf_kvNS_9allocatorIS1_EEE24__emplace_back_slow_pathIJRKNS_12basic_stringIcNS_11char_traitsIcEENS2_IcEEEERSA_EEEPS1_DpOT_, symObjAddr: 0x11458, symBinAddr: 0xA601C, symSize: 0x258 }
  - { offset: 0x223059, size: 0x8, addend: 0x0, symName: __ZNSt3__16vectorIyNS_9allocatorIyEEE8__appendEm, symObjAddr: 0x11988, symBinAddr: 0xA6378, symSize: 0x19C }
  - { offset: 0x2234FD, size: 0x8, addend: 0x0, symName: __ZNKSt3__16vectorIyNS_9allocatorIyEEE20__throw_length_errorB8ne180100Ev, symObjAddr: 0x11B24, symBinAddr: 0xA6514, symSize: 0x14 }
  - { offset: 0x223508, size: 0x8, addend: 0x0, symName: __ZN7gguf_kvC2IyEERKNSt3__112basic_stringIcNS1_11char_traitsIcEENS1_9allocatorIcEEEERKNS1_6vectorIT_NS5_ISB_EEEE, symObjAddr: 0x11D90, symBinAddr: 0xA6780, symSize: 0x168 }
  - { offset: 0x223AD8, size: 0x8, addend: 0x0, symName: __ZN7gguf_kvC2IyEERKNSt3__112basic_stringIcNS1_11char_traitsIcEENS1_9allocatorIcEEEET_, symObjAddr: 0x12150, symBinAddr: 0xA6B40, symSize: 0x108 }
  - { offset: 0x223F63, size: 0x8, addend: 0x0, symName: __ZNSt3__16vectorI7gguf_kvNS_9allocatorIS1_EEE24__emplace_back_slow_pathIJRKNS_12basic_stringIcNS_11char_traitsIcEENS2_IcEEEERNS0_IyNS2_IyEEEEEEEPS1_DpOT_, symObjAddr: 0x11B38, symBinAddr: 0xA6528, symSize: 0x258 }
  - { offset: 0x224CA5, size: 0x8, addend: 0x0, symName: __ZNSt3__16vectorI7gguf_kvNS_9allocatorIS1_EEE24__emplace_back_slow_pathIJRKNS_12basic_stringIcNS_11char_traitsIcEENS2_IcEEEERyEEEPS1_DpOT_, symObjAddr: 0x11EF8, symBinAddr: 0xA68E8, symSize: 0x258 }
  - { offset: 0x226124, size: 0x8, addend: 0x0, symName: __ZN7gguf_kvC2IxEERKNSt3__112basic_stringIcNS1_11char_traitsIcEENS1_9allocatorIcEEEERKNS1_6vectorIT_NS5_ISB_EEEE, symObjAddr: 0x12660, symBinAddr: 0xA6EA0, symSize: 0x168 }
  - { offset: 0x2266F4, size: 0x8, addend: 0x0, symName: __ZN7gguf_kvC2IxEERKNSt3__112basic_stringIcNS1_11char_traitsIcEENS1_9allocatorIcEEEET_, symObjAddr: 0x12A20, symBinAddr: 0xA7260, symSize: 0x108 }
  - { offset: 0x226B7F, size: 0x8, addend: 0x0, symName: __ZNSt3__16vectorI7gguf_kvNS_9allocatorIS1_EEE24__emplace_back_slow_pathIJRKNS_12basic_stringIcNS_11char_traitsIcEENS2_IcEEEERNS0_IxNS2_IxEEEEEEEPS1_DpOT_, symObjAddr: 0x12408, symBinAddr: 0xA6C48, symSize: 0x258 }
  - { offset: 0x2278C1, size: 0x8, addend: 0x0, symName: __ZNSt3__16vectorI7gguf_kvNS_9allocatorIS1_EEE24__emplace_back_slow_pathIJRKNS_12basic_stringIcNS_11char_traitsIcEENS2_IcEEEERxEEEPS1_DpOT_, symObjAddr: 0x127C8, symBinAddr: 0xA7008, symSize: 0x258 }
  - { offset: 0x228ACA, size: 0x8, addend: 0x0, symName: __ZNSt3__16vectorIdNS_9allocatorIdEEE8__appendEm, symObjAddr: 0x12B28, symBinAddr: 0xA7368, symSize: 0x19C }
  - { offset: 0x228F79, size: 0x8, addend: 0x0, symName: __ZN7gguf_kvC2IdEERKNSt3__112basic_stringIcNS1_11char_traitsIcEENS1_9allocatorIcEEEERKNS1_6vectorIT_NS5_ISB_EEEE, symObjAddr: 0x12F30, symBinAddr: 0xA775C, symSize: 0x168 }
  - { offset: 0x229549, size: 0x8, addend: 0x0, symName: __ZN7gguf_kvC2IdEERKNSt3__112basic_stringIcNS1_11char_traitsIcEENS1_9allocatorIcEEEET_, symObjAddr: 0x132F0, symBinAddr: 0xA7B1C, symSize: 0x108 }
  - { offset: 0x2299D4, size: 0x8, addend: 0x0, symName: __ZNSt3__16vectorI7gguf_kvNS_9allocatorIS1_EEE24__emplace_back_slow_pathIJRKNS_12basic_stringIcNS_11char_traitsIcEENS2_IcEEEERNS0_IdNS2_IdEEEEEEEPS1_DpOT_, symObjAddr: 0x12CD8, symBinAddr: 0xA7504, symSize: 0x258 }
  - { offset: 0x22A716, size: 0x8, addend: 0x0, symName: __ZNSt3__16vectorI7gguf_kvNS_9allocatorIS1_EEE24__emplace_back_slow_pathIJRKNS_12basic_stringIcNS_11char_traitsIcEENS2_IcEEEERdEEEPS1_DpOT_, symObjAddr: 0x13098, symBinAddr: 0xA78C4, symSize: 0x258 }
  - { offset: 0x22B452, size: 0x8, addend: 0x0, symName: _gguf_find_key, symObjAddr: 0x3240, symBinAddr: 0x98564, symSize: 0x84 }
  - { offset: 0x22B666, size: 0x8, addend: 0x0, symName: __ZNK7gguf_kv6get_neEv, symObjAddr: 0x3CE8, symBinAddr: 0x9900C, symSize: 0x154 }
  - { offset: 0x22B845, size: 0x8, addend: 0x0, symName: _gguf_get_val_i8, symObjAddr: 0x3E3C, symBinAddr: 0x99160, symSize: 0x1A8 }
  - { offset: 0x22BBAD, size: 0x8, addend: 0x0, symName: __ZNKSt3__16vectorI16gguf_tensor_infoNS_9allocatorIS1_EEE20__throw_length_errorB8ne180100Ev, symObjAddr: 0x133F8, symBinAddr: 0xA7C24, symSize: 0x14 }
  - { offset: 0x22BBD7, size: 0x8, addend: 0x0, symName: __ZNKSt3__111__move_loopINS_17_ClassicAlgPolicyEEclB8ne180100IP7gguf_kvS5_S5_EENS_4pairIT_T1_EES7_T0_S8_, symObjAddr: 0x1340C, symBinAddr: 0xA7C38, symSize: 0x130 }
  - { offset: 0x22BBE2, size: 0x8, addend: 0x0, symName: _gguf_init_from_file, symObjAddr: 0x35D0, symBinAddr: 0x988F4, symSize: 0xA0 }
  - { offset: 0x22BDC8, size: 0x8, addend: 0x0, symName: _gguf_type_name, symObjAddr: 0x3670, symBinAddr: 0x98994, symSize: 0x58 }
  - { offset: 0x22BE09, size: 0x8, addend: 0x0, symName: _gguf_type_name, symObjAddr: 0x3670, symBinAddr: 0x98994, symSize: 0x58 }
  - { offset: 0x22BE1F, size: 0x8, addend: 0x0, symName: _gguf_type_name, symObjAddr: 0x3670, symBinAddr: 0x98994, symSize: 0x58 }
  - { offset: 0x22BE3F, size: 0x8, addend: 0x0, symName: _gguf_type_name, symObjAddr: 0x3670, symBinAddr: 0x98994, symSize: 0x58 }
  - { offset: 0x22BF01, size: 0x8, addend: 0x0, symName: _gguf_get_version, symObjAddr: 0x36C8, symBinAddr: 0x989EC, symSize: 0x8 }
  - { offset: 0x22BF2E, size: 0x8, addend: 0x0, symName: _gguf_get_alignment, symObjAddr: 0x36D0, symBinAddr: 0x989F4, symSize: 0x8 }
  - { offset: 0x22BF5B, size: 0x8, addend: 0x0, symName: _gguf_get_data_offset, symObjAddr: 0x36D8, symBinAddr: 0x989FC, symSize: 0x8 }
  - { offset: 0x22BF88, size: 0x8, addend: 0x0, symName: _gguf_get_n_kv, symObjAddr: 0x36E0, symBinAddr: 0x98A04, symSize: 0x1C }
  - { offset: 0x22BFAA, size: 0x8, addend: 0x0, symName: _gguf_get_n_kv, symObjAddr: 0x36E0, symBinAddr: 0x98A04, symSize: 0x1C }
  - { offset: 0x22BFC8, size: 0x8, addend: 0x0, symName: _gguf_get_key, symObjAddr: 0x36FC, symBinAddr: 0x98A20, symSize: 0x80 }
  - { offset: 0x22C0DC, size: 0x8, addend: 0x0, symName: _gguf_get_kv_type, symObjAddr: 0x377C, symBinAddr: 0x98AA0, symSize: 0x8C }
  - { offset: 0x22C106, size: 0x8, addend: 0x0, symName: _gguf_get_kv_type, symObjAddr: 0x377C, symBinAddr: 0x98AA0, symSize: 0x8C }
  - { offset: 0x22C1AE, size: 0x8, addend: 0x0, symName: _gguf_get_arr_type, symObjAddr: 0x3808, symBinAddr: 0x98B2C, symSize: 0xA0 }
  - { offset: 0x22C1C2, size: 0x8, addend: 0x0, symName: _gguf_get_arr_type, symObjAddr: 0x3808, symBinAddr: 0x98B2C, symSize: 0xA0 }
  - { offset: 0x22C281, size: 0x8, addend: 0x0, symName: _gguf_get_arr_data, symObjAddr: 0x38A8, symBinAddr: 0x98BCC, symSize: 0xA4 }
  - { offset: 0x22C2AB, size: 0x8, addend: 0x0, symName: _gguf_get_arr_data, symObjAddr: 0x38A8, symBinAddr: 0x98BCC, symSize: 0xA4 }
  - { offset: 0x22C38B, size: 0x8, addend: 0x0, symName: _gguf_get_arr_str, symObjAddr: 0x394C, symBinAddr: 0x98C70, symSize: 0xC4 }
  - { offset: 0x22C3C9, size: 0x8, addend: 0x0, symName: _gguf_get_arr_str, symObjAddr: 0x394C, symBinAddr: 0x98C70, symSize: 0xC4 }
  - { offset: 0x22C54B, size: 0x8, addend: 0x0, symName: _gguf_get_arr_n, symObjAddr: 0x3A10, symBinAddr: 0x98D34, symSize: 0x134 }
  - { offset: 0x22C575, size: 0x8, addend: 0x0, symName: _gguf_get_arr_n, symObjAddr: 0x3A10, symBinAddr: 0x98D34, symSize: 0x134 }
  - { offset: 0x22C77D, size: 0x8, addend: 0x0, symName: _gguf_get_val_u8, symObjAddr: 0x3B44, symBinAddr: 0x98E68, symSize: 0x1A4 }
  - { offset: 0x22C7C7, size: 0x8, addend: 0x0, symName: _gguf_get_val_u8, symObjAddr: 0x3B44, symBinAddr: 0x98E68, symSize: 0x1A4 }
  - { offset: 0x22CA59, size: 0x8, addend: 0x0, symName: __ZNK7gguf_kv6get_neEv, symObjAddr: 0x3CE8, symBinAddr: 0x9900C, symSize: 0x154 }
  - { offset: 0x22CAA3, size: 0x8, addend: 0x0, symName: _gguf_get_val_i8, symObjAddr: 0x3E3C, symBinAddr: 0x99160, symSize: 0x1A8 }
  - { offset: 0x22CD35, size: 0x8, addend: 0x0, symName: _gguf_get_val_u16, symObjAddr: 0x3FE4, symBinAddr: 0x99308, symSize: 0x1A8 }
  - { offset: 0x22CD7F, size: 0x8, addend: 0x0, symName: _gguf_get_val_u16, symObjAddr: 0x3FE4, symBinAddr: 0x99308, symSize: 0x1A8 }
  - { offset: 0x22D011, size: 0x8, addend: 0x0, symName: _gguf_get_val_i16, symObjAddr: 0x418C, symBinAddr: 0x994B0, symSize: 0x1A8 }
  - { offset: 0x22D05B, size: 0x8, addend: 0x0, symName: _gguf_get_val_i16, symObjAddr: 0x418C, symBinAddr: 0x994B0, symSize: 0x1A8 }
  - { offset: 0x22D2ED, size: 0x8, addend: 0x0, symName: _gguf_get_val_i32, symObjAddr: 0x4334, symBinAddr: 0x99658, symSize: 0x1A8 }
  - { offset: 0x22D337, size: 0x8, addend: 0x0, symName: _gguf_get_val_i32, symObjAddr: 0x4334, symBinAddr: 0x99658, symSize: 0x1A8 }
  - { offset: 0x22D5C9, size: 0x8, addend: 0x0, symName: _gguf_get_val_f32, symObjAddr: 0x44DC, symBinAddr: 0x99800, symSize: 0x1A8 }
  - { offset: 0x22D613, size: 0x8, addend: 0x0, symName: _gguf_get_val_f32, symObjAddr: 0x44DC, symBinAddr: 0x99800, symSize: 0x1A8 }
  - { offset: 0x22D8A5, size: 0x8, addend: 0x0, symName: _gguf_get_val_u64, symObjAddr: 0x4684, symBinAddr: 0x999A8, symSize: 0x1A8 }
  - { offset: 0x22D8EF, size: 0x8, addend: 0x0, symName: _gguf_get_val_u64, symObjAddr: 0x4684, symBinAddr: 0x999A8, symSize: 0x1A8 }
  - { offset: 0x22DB81, size: 0x8, addend: 0x0, symName: _gguf_get_val_i64, symObjAddr: 0x482C, symBinAddr: 0x99B50, symSize: 0x1A8 }
  - { offset: 0x22DBCB, size: 0x8, addend: 0x0, symName: _gguf_get_val_i64, symObjAddr: 0x482C, symBinAddr: 0x99B50, symSize: 0x1A8 }
  - { offset: 0x22DE5D, size: 0x8, addend: 0x0, symName: _gguf_get_val_f64, symObjAddr: 0x49D4, symBinAddr: 0x99CF8, symSize: 0x1A8 }
  - { offset: 0x22DEA7, size: 0x8, addend: 0x0, symName: _gguf_get_val_f64, symObjAddr: 0x49D4, symBinAddr: 0x99CF8, symSize: 0x1A8 }
  - { offset: 0x22E139, size: 0x8, addend: 0x0, symName: _gguf_get_val_bool, symObjAddr: 0x4B7C, symBinAddr: 0x99EA0, symSize: 0x1A8 }
  - { offset: 0x22E183, size: 0x8, addend: 0x0, symName: _gguf_get_val_bool, symObjAddr: 0x4B7C, symBinAddr: 0x99EA0, symSize: 0x1A8 }
  - { offset: 0x22E415, size: 0x8, addend: 0x0, symName: __ZNK7gguf_kv7get_valIbEERKT_m, symObjAddr: 0x4D24, symBinAddr: 0x9A048, symSize: 0x118 }
  - { offset: 0x22E429, size: 0x8, addend: 0x0, symName: __ZNK7gguf_kv7get_valIbEERKT_m, symObjAddr: 0x4D24, symBinAddr: 0x9A048, symSize: 0x118 }
  - { offset: 0x22E5C5, size: 0x8, addend: 0x0, symName: _gguf_get_val_str, symObjAddr: 0x4E3C, symBinAddr: 0x9A160, symSize: 0x138 }
  - { offset: 0x22E603, size: 0x8, addend: 0x0, symName: _gguf_get_val_str, symObjAddr: 0x4E3C, symBinAddr: 0x9A160, symSize: 0x138 }
  - { offset: 0x22E7E1, size: 0x8, addend: 0x0, symName: _gguf_get_val_data, symObjAddr: 0x4F74, symBinAddr: 0x9A298, symSize: 0xF0 }
  - { offset: 0x22E7F5, size: 0x8, addend: 0x0, symName: _gguf_get_val_data, symObjAddr: 0x4F74, symBinAddr: 0x9A298, symSize: 0xF0 }
  - { offset: 0x22E938, size: 0x8, addend: 0x0, symName: _gguf_get_n_tensors, symObjAddr: 0x5064, symBinAddr: 0x9A388, symSize: 0x24 }
  - { offset: 0x22E94C, size: 0x8, addend: 0x0, symName: _gguf_get_n_tensors, symObjAddr: 0x5064, symBinAddr: 0x9A388, symSize: 0x24 }
  - { offset: 0x22E96E, size: 0x8, addend: 0x0, symName: _gguf_get_n_tensors, symObjAddr: 0x5064, symBinAddr: 0x9A388, symSize: 0x24 }
  - { offset: 0x22E9A7, size: 0x8, addend: 0x0, symName: _gguf_find_tensor, symObjAddr: 0x5088, symBinAddr: 0x9A3AC, symSize: 0x84 }
  - { offset: 0x22EA42, size: 0x8, addend: 0x0, symName: _gguf_get_tensor_name, symObjAddr: 0x510C, symBinAddr: 0x9A430, symSize: 0x74 }
  - { offset: 0x22EAC3, size: 0x8, addend: 0x0, symName: _gguf_get_tensor_offset, symObjAddr: 0x5180, symBinAddr: 0x9A4A4, symSize: 0x74 }
  - { offset: 0x22EAD7, size: 0x8, addend: 0x0, symName: _gguf_get_tensor_offset, symObjAddr: 0x5180, symBinAddr: 0x9A4A4, symSize: 0x74 }
  - { offset: 0x22EB58, size: 0x8, addend: 0x0, symName: _gguf_get_tensor_type, symObjAddr: 0x51F4, symBinAddr: 0x9A518, symSize: 0x74 }
  - { offset: 0x22EB90, size: 0x8, addend: 0x0, symName: _gguf_get_tensor_type, symObjAddr: 0x51F4, symBinAddr: 0x9A518, symSize: 0x74 }
  - { offset: 0x22EC30, size: 0x8, addend: 0x0, symName: _gguf_get_tensor_size, symObjAddr: 0x5268, symBinAddr: 0x9A58C, symSize: 0x70 }
  - { offset: 0x22EC44, size: 0x8, addend: 0x0, symName: _gguf_get_tensor_size, symObjAddr: 0x5268, symBinAddr: 0x9A58C, symSize: 0x70 }
  - { offset: 0x22ECF2, size: 0x8, addend: 0x0, symName: _gguf_remove_key, symObjAddr: 0x52D8, symBinAddr: 0x9A5FC, symSize: 0xBC }
  - { offset: 0x22ED06, size: 0x8, addend: 0x0, symName: _gguf_remove_key, symObjAddr: 0x52D8, symBinAddr: 0x9A5FC, symSize: 0xBC }
  - { offset: 0x22EECD, size: 0x8, addend: 0x0, symName: __ZNSt3__16vectorI7gguf_kvNS_9allocatorIS1_EEE5eraseB8ne180100ENS_11__wrap_iterIPKS1_EE, symObjAddr: 0x5394, symBinAddr: 0x9A6B8, symSize: 0xE0 }
  - { offset: 0x22F707, size: 0x8, addend: 0x0, symName: __ZNKSt3__111__move_loopINS_17_ClassicAlgPolicyEEclB8ne180100IP7gguf_kvS5_S5_EENS_4pairIT_T1_EES7_T0_S8_, symObjAddr: 0x1340C, symBinAddr: 0xA7C38, symSize: 0x130 }
  - { offset: 0x230155, size: 0x8, addend: 0x0, symName: _gguf_set_val_u8, symObjAddr: 0x5474, symBinAddr: 0x9A798, symSize: 0x278 }
  - { offset: 0x230B58, size: 0x8, addend: 0x0, symName: __ZNSt3__19allocatorI7gguf_kvE9constructB8ne180100IS1_JRPKcRhEEEvPT_DpOT0_, symObjAddr: 0x13794, symBinAddr: 0xA7FC0, symSize: 0x10C }
  - { offset: 0x23127D, size: 0x8, addend: 0x0, symName: __ZNSt3__16vectorI7gguf_kvNS_9allocatorIS1_EEE24__emplace_back_slow_pathIJRPKcRhEEEPS1_DpOT_, symObjAddr: 0x1353C, symBinAddr: 0xA7D68, symSize: 0x258 }
  - { offset: 0x231F89, size: 0x8, addend: 0x0, symName: __ZNSt3__114__split_bufferI7gguf_kvRNS_9allocatorIS1_EEED1Ev, symObjAddr: 0xC5CC, symBinAddr: 0xA157C, symSize: 0x30 }
  - { offset: 0x2320AE, size: 0x8, addend: 0x0, symName: _gguf_set_val_i8, symObjAddr: 0x56EC, symBinAddr: 0x9AA10, symSize: 0x278 }
  - { offset: 0x232A9F, size: 0x8, addend: 0x0, symName: __ZNSt3__19allocatorI7gguf_kvE9constructB8ne180100IS1_JRPKcRaEEEvPT_DpOT0_, symObjAddr: 0x13AF8, symBinAddr: 0xA8324, symSize: 0x10C }
  - { offset: 0x2331C4, size: 0x8, addend: 0x0, symName: __ZNSt3__16vectorI7gguf_kvNS_9allocatorIS1_EEE24__emplace_back_slow_pathIJRPKcRaEEEPS1_DpOT_, symObjAddr: 0x138A0, symBinAddr: 0xA80CC, symSize: 0x258 }
  - { offset: 0x233FD2, size: 0x8, addend: 0x0, symName: _gguf_set_val_u16, symObjAddr: 0x5964, symBinAddr: 0x9AC88, symSize: 0x278 }
  - { offset: 0x2349C3, size: 0x8, addend: 0x0, symName: __ZNSt3__19allocatorI7gguf_kvE9constructB8ne180100IS1_JRPKcRtEEEvPT_DpOT0_, symObjAddr: 0x13E5C, symBinAddr: 0xA8688, symSize: 0x10C }
  - { offset: 0x2350E8, size: 0x8, addend: 0x0, symName: __ZNSt3__16vectorI7gguf_kvNS_9allocatorIS1_EEE24__emplace_back_slow_pathIJRPKcRtEEEPS1_DpOT_, symObjAddr: 0x13C04, symBinAddr: 0xA8430, symSize: 0x258 }
  - { offset: 0x235EF6, size: 0x8, addend: 0x0, symName: _gguf_set_val_i16, symObjAddr: 0x5BDC, symBinAddr: 0x9AF00, symSize: 0x278 }
  - { offset: 0x2368E7, size: 0x8, addend: 0x0, symName: __ZNSt3__19allocatorI7gguf_kvE9constructB8ne180100IS1_JRPKcRsEEEvPT_DpOT0_, symObjAddr: 0x141C0, symBinAddr: 0xA89EC, symSize: 0x10C }
  - { offset: 0x23700C, size: 0x8, addend: 0x0, symName: __ZNSt3__16vectorI7gguf_kvNS_9allocatorIS1_EEE24__emplace_back_slow_pathIJRPKcRsEEEPS1_DpOT_, symObjAddr: 0x13F68, symBinAddr: 0xA8794, symSize: 0x258 }
  - { offset: 0x237E1A, size: 0x8, addend: 0x0, symName: _gguf_set_val_u32, symObjAddr: 0x5E54, symBinAddr: 0x9B178, symSize: 0x268 }
  - { offset: 0x238822, size: 0x8, addend: 0x0, symName: __ZNSt3__19allocatorI7gguf_kvE9constructB8ne180100IS1_JRPKcRjEEEvPT_DpOT0_, symObjAddr: 0x14524, symBinAddr: 0xA8D50, symSize: 0x10C }
  - { offset: 0x238F4F, size: 0x8, addend: 0x0, symName: __ZNSt3__16vectorI7gguf_kvNS_9allocatorIS1_EEE24__emplace_back_slow_pathIJRPKcRjEEEPS1_DpOT_, symObjAddr: 0x142CC, symBinAddr: 0xA8AF8, symSize: 0x258 }
  - { offset: 0x239D5D, size: 0x8, addend: 0x0, symName: _gguf_set_val_i32, symObjAddr: 0x60BC, symBinAddr: 0x9B3E0, symSize: 0x278 }
  - { offset: 0x23A74E, size: 0x8, addend: 0x0, symName: __ZNSt3__19allocatorI7gguf_kvE9constructB8ne180100IS1_JRPKcRiEEEvPT_DpOT0_, symObjAddr: 0x14888, symBinAddr: 0xA90B4, symSize: 0x10C }
  - { offset: 0x23AE7B, size: 0x8, addend: 0x0, symName: __ZNSt3__16vectorI7gguf_kvNS_9allocatorIS1_EEE24__emplace_back_slow_pathIJRPKcRiEEEPS1_DpOT_, symObjAddr: 0x14630, symBinAddr: 0xA8E5C, symSize: 0x258 }
  - { offset: 0x23BC89, size: 0x8, addend: 0x0, symName: _gguf_set_val_f32, symObjAddr: 0x6334, symBinAddr: 0x9B658, symSize: 0x278 }
  - { offset: 0x23C67A, size: 0x8, addend: 0x0, symName: __ZNSt3__19allocatorI7gguf_kvE9constructB8ne180100IS1_JRPKcRfEEEvPT_DpOT0_, symObjAddr: 0x14BEC, symBinAddr: 0xA9418, symSize: 0x10C }
  - { offset: 0x23CDA8, size: 0x8, addend: 0x0, symName: __ZNSt3__16vectorI7gguf_kvNS_9allocatorIS1_EEE24__emplace_back_slow_pathIJRPKcRfEEEPS1_DpOT_, symObjAddr: 0x14994, symBinAddr: 0xA91C0, symSize: 0x258 }
  - { offset: 0x23DBB6, size: 0x8, addend: 0x0, symName: _gguf_set_val_u64, symObjAddr: 0x65AC, symBinAddr: 0x9B8D0, symSize: 0x274 }
  - { offset: 0x23E5A7, size: 0x8, addend: 0x0, symName: __ZNSt3__19allocatorI7gguf_kvE9constructB8ne180100IS1_JRPKcRyEEEvPT_DpOT0_, symObjAddr: 0x14F50, symBinAddr: 0xA977C, symSize: 0x10C }
  - { offset: 0x23ECD4, size: 0x8, addend: 0x0, symName: __ZNSt3__16vectorI7gguf_kvNS_9allocatorIS1_EEE24__emplace_back_slow_pathIJRPKcRyEEEPS1_DpOT_, symObjAddr: 0x14CF8, symBinAddr: 0xA9524, symSize: 0x258 }
  - { offset: 0x23FAE2, size: 0x8, addend: 0x0, symName: _gguf_set_val_i64, symObjAddr: 0x6820, symBinAddr: 0x9BB44, symSize: 0x274 }
  - { offset: 0x2404D3, size: 0x8, addend: 0x0, symName: __ZNSt3__19allocatorI7gguf_kvE9constructB8ne180100IS1_JRPKcRxEEEvPT_DpOT0_, symObjAddr: 0x152B4, symBinAddr: 0xA9AE0, symSize: 0x10C }
  - { offset: 0x240C00, size: 0x8, addend: 0x0, symName: __ZNSt3__16vectorI7gguf_kvNS_9allocatorIS1_EEE24__emplace_back_slow_pathIJRPKcRxEEEPS1_DpOT_, symObjAddr: 0x1505C, symBinAddr: 0xA9888, symSize: 0x258 }
  - { offset: 0x241A0E, size: 0x8, addend: 0x0, symName: _gguf_set_val_f64, symObjAddr: 0x6A94, symBinAddr: 0x9BDB8, symSize: 0x278 }
  - { offset: 0x2423FF, size: 0x8, addend: 0x0, symName: __ZNSt3__19allocatorI7gguf_kvE9constructB8ne180100IS1_JRPKcRdEEEvPT_DpOT0_, symObjAddr: 0x15618, symBinAddr: 0xA9E44, symSize: 0x10C }
  - { offset: 0x242B2D, size: 0x8, addend: 0x0, symName: __ZNSt3__16vectorI7gguf_kvNS_9allocatorIS1_EEE24__emplace_back_slow_pathIJRPKcRdEEEPS1_DpOT_, symObjAddr: 0x153C0, symBinAddr: 0xA9BEC, symSize: 0x258 }
  - { offset: 0x24393B, size: 0x8, addend: 0x0, symName: _gguf_set_val_bool, symObjAddr: 0x6D0C, symBinAddr: 0x9C030, symSize: 0x278 }
  - { offset: 0x24432C, size: 0x8, addend: 0x0, symName: __ZNSt3__19allocatorI7gguf_kvE9constructB8ne180100IS1_JRPKcRbEEEvPT_DpOT0_, symObjAddr: 0x1597C, symBinAddr: 0xAA1A8, symSize: 0x10C }
  - { offset: 0x244A51, size: 0x8, addend: 0x0, symName: __ZNSt3__16vectorI7gguf_kvNS_9allocatorIS1_EEE24__emplace_back_slow_pathIJRPKcRbEEEPS1_DpOT_, symObjAddr: 0x15724, symBinAddr: 0xA9F50, symSize: 0x258 }
  - { offset: 0x245865, size: 0x8, addend: 0x0, symName: _gguf_set_val_str, symObjAddr: 0x6F84, symBinAddr: 0x9C2A8, symSize: 0x318 }
  - { offset: 0x2467D6, size: 0x8, addend: 0x0, symName: __ZNSt3__19allocatorI7gguf_kvE9constructB8ne180100IS1_JRPKcNS_12basic_stringIcNS_11char_traitsIcEENS0_IcEEEEEEEvPT_DpOT0_, symObjAddr: 0x15CE0, symBinAddr: 0xAA50C, symSize: 0x10C }
  - { offset: 0x246F0A, size: 0x8, addend: 0x0, symName: __ZNSt3__16vectorI7gguf_kvNS_9allocatorIS1_EEE24__emplace_back_slow_pathIJRPKcNS_12basic_stringIcNS_11char_traitsIcEENS2_IcEEEEEEEPS1_DpOT_, symObjAddr: 0x15A88, symBinAddr: 0xAA2B4, symSize: 0x258 }
  - { offset: 0x247EFC, size: 0x8, addend: 0x0, symName: _gguf_set_arr_data, symObjAddr: 0x729C, symBinAddr: 0x9C5C0, symSize: 0x428 }
  - { offset: 0x248E1D, size: 0x8, addend: 0x0, symName: __ZNSt3__16vectorI7gguf_kvNS_9allocatorIS1_EEE24__emplace_back_slow_pathIJRPKcRNS0_IaNS2_IaEEEEEEEPS1_DpOT_, symObjAddr: 0x15DEC, symBinAddr: 0xAA618, symSize: 0x258 }
  - { offset: 0x249B11, size: 0x8, addend: 0x0, symName: __ZNSt3__19allocatorI7gguf_kvE9constructB8ne180100IS1_JRPKcRNS_6vectorIaNS0_IaEEEEEEEvPT_DpOT0_, symObjAddr: 0x16044, symBinAddr: 0xAA870, symSize: 0x10C }
  - { offset: 0x24A245, size: 0x8, addend: 0x0, symName: __ZNKSt3__16vectorIaNS_9allocatorIaEEE20__throw_length_errorB8ne180100Ev, symObjAddr: 0xAC68, symBinAddr: 0x9FF1C, symSize: 0x14 }
  - { offset: 0x24A3DA, size: 0x8, addend: 0x0, symName: _gguf_set_arr_str, symObjAddr: 0x76C4, symBinAddr: 0x9C9E8, symSize: 0x318 }
  - { offset: 0x24B11D, size: 0x8, addend: 0x0, symName: __ZNSt3__16vectorINS_12basic_stringIcNS_11char_traitsIcEENS_9allocatorIcEEEENS4_IS6_EEEC1Em, symObjAddr: 0x79DC, symBinAddr: 0x9CD00, symSize: 0xC8 }
  - { offset: 0x24B3E9, size: 0x8, addend: 0x0, symName: __ZNSt3__19allocatorI7gguf_kvE9constructB8ne180100IS1_JRPKcRNS_6vectorINS_12basic_stringIcNS_11char_traitsIcEENS0_IcEEEENS0_ISC_EEEEEEEvPT_DpOT0_, symObjAddr: 0x163A8, symBinAddr: 0xAABD4, symSize: 0x10C }
  - { offset: 0x24BB1D, size: 0x8, addend: 0x0, symName: __ZNSt3__16vectorI7gguf_kvNS_9allocatorIS1_EEE24__emplace_back_slow_pathIJRPKcRNS0_INS_12basic_stringIcNS_11char_traitsIcEENS2_IcEEEENS2_ISD_EEEEEEEPS1_DpOT_, symObjAddr: 0x16150, symBinAddr: 0xAA97C, symSize: 0x258 }
  - { offset: 0x24C9ED, size: 0x8, addend: 0x0, symName: __ZNSt3__16vectorI7gguf_kvNS_9allocatorIS1_EEE24__emplace_back_slow_pathIJRKNS_12basic_stringIcNS_11char_traitsIcEENS2_IcEEEERNS0_ISA_NS2_ISA_EEEEEEEPS1_DpOT_, symObjAddr: 0x10DDC, symBinAddr: 0xA59A0, symSize: 0x258 }
  - { offset: 0x24C9F8, size: 0x8, addend: 0x0, symName: __ZNSt3__16vectorINS_12basic_stringIcNS_11char_traitsIcEENS_9allocatorIcEEEENS4_IS6_EEEC1Em.cold.1, symObjAddr: 0x164C8, symBinAddr: 0xF73C0, symSize: 0x60 }
  - { offset: 0x24CF20, size: 0x8, addend: 0x0, symName: _gguf_set_kv, symObjAddr: 0x7B14, symBinAddr: 0x9CDC8, symSize: 0xADC }
  - { offset: 0x24EEA2, size: 0x8, addend: 0x0, symName: __ZNKSt3__16vectorIPKcNS_9allocatorIS2_EEE20__throw_length_errorB8ne180100Ev, symObjAddr: 0x164B4, symBinAddr: 0xAACE0, symSize: 0x14 }
  - { offset: 0x24EECC, size: 0x8, addend: 0x0, symName: __ZNSt3__16vectorINS_12basic_stringIcNS_11char_traitsIcEENS_9allocatorIcEEEENS4_IS6_EEEC1Em.cold.1, symObjAddr: 0x164C8, symBinAddr: 0xF73C0, symSize: 0x60 }
  - { offset: 0x24EF6F, size: 0x8, addend: 0x0, symName: _gguf_add_tensor, symObjAddr: 0x85F0, symBinAddr: 0x9D8A4, symSize: 0x284 }
  - { offset: 0x24F558, size: 0x8, addend: 0x0, symName: _gguf_set_tensor_type, symObjAddr: 0x8874, symBinAddr: 0x9DB28, symSize: 0x194 }
  - { offset: 0x24F587, size: 0x8, addend: 0x0, symName: _gguf_set_tensor_type, symObjAddr: 0x8874, symBinAddr: 0x9DB28, symSize: 0x194 }
  - { offset: 0x24F799, size: 0x8, addend: 0x0, symName: _gguf_set_tensor_data, symObjAddr: 0x8A08, symBinAddr: 0x9DCBC, symSize: 0xA0 }
  - { offset: 0x24F7AD, size: 0x8, addend: 0x0, symName: _gguf_set_tensor_data, symObjAddr: 0x8A08, symBinAddr: 0x9DCBC, symSize: 0xA0 }
  - { offset: 0x24FE64, size: 0x8, addend: 0x0, symName: __Z17gguf_write_to_bufPK12gguf_contextRNSt3__16vectorIaNS2_9allocatorIaEEEEb, symObjAddr: 0x8AA8, symBinAddr: 0x9DD5C, symSize: 0xA3C }
  - { offset: 0x251BBC, size: 0x8, addend: 0x0, symName: __ZNK11gguf_writer5writeIjEEvRKT_, symObjAddr: 0x94E4, symBinAddr: 0x9E798, symSize: 0x610 }
  - { offset: 0x251BCF, size: 0x8, addend: 0x0, symName: __ZNK11gguf_writer5writeIjEEvRKT_, symObjAddr: 0x94E4, symBinAddr: 0x9E798, symSize: 0x610 }
  - { offset: 0x25201D, size: 0x8, addend: 0x0, symName: __ZNK11gguf_writer5writeIxEEvRKT_, symObjAddr: 0x9AF4, symBinAddr: 0x9EDA8, symSize: 0x1D4 }
  - { offset: 0x252039, size: 0x8, addend: 0x0, symName: __ZNK11gguf_writer5writeERK7gguf_kv, symObjAddr: 0x9CC8, symBinAddr: 0x9EF7C, symSize: 0x368 }
  - { offset: 0x2527DC, size: 0x8, addend: 0x0, symName: __ZNK11gguf_writer17write_tensor_metaERK16gguf_tensor_info, symObjAddr: 0xA030, symBinAddr: 0x9F2E4, symSize: 0xA0 }
  - { offset: 0x2527F0, size: 0x8, addend: 0x0, symName: __ZNK11gguf_writer17write_tensor_metaERK16gguf_tensor_info, symObjAddr: 0xA030, symBinAddr: 0x9F2E4, symSize: 0xA0 }
  - { offset: 0x252922, size: 0x8, addend: 0x0, symName: __ZNK11gguf_writer3padEm, symObjAddr: 0xA0D0, symBinAddr: 0x9F384, symSize: 0x1F8 }
  - { offset: 0x252D93, size: 0x8, addend: 0x0, symName: __ZNK11gguf_writer17write_tensor_dataERK16gguf_tensor_infomm, symObjAddr: 0xA2C8, symBinAddr: 0x9F57C, symSize: 0x300 }
  - { offset: 0x252DA6, size: 0x8, addend: 0x0, symName: __ZNK11gguf_writer17write_tensor_dataERK16gguf_tensor_infomm, symObjAddr: 0xA2C8, symBinAddr: 0x9F57C, symSize: 0x300 }
  - { offset: 0x25348B, size: 0x8, addend: 0x0, symName: _gguf_write_to_file, symObjAddr: 0xA5C8, symBinAddr: 0x9F87C, symSize: 0x104 }
  - { offset: 0x25349E, size: 0x8, addend: 0x0, symName: __ZNK11gguf_writer5writeIxEEvRKT_, symObjAddr: 0x9AF4, symBinAddr: 0x9EDA8, symSize: 0x1D4 }
  - { offset: 0x25393C, size: 0x8, addend: 0x0, symName: __ZNK11gguf_writer5writeERK7gguf_kv, symObjAddr: 0x9CC8, symBinAddr: 0x9EF7C, symSize: 0x368 }
  - { offset: 0x253A7E, size: 0x8, addend: 0x0, symName: __ZNK11gguf_writer5writeERKNSt3__112basic_stringIcNS0_11char_traitsIcEENS0_9allocatorIcEEEE, symObjAddr: 0xA864, symBinAddr: 0x9FB18, symSize: 0x230 }
  - { offset: 0x25409B, size: 0x8, addend: 0x0, symName: __ZNK11gguf_writer5writeIyEEvRKT_, symObjAddr: 0xAA94, symBinAddr: 0x9FD48, symSize: 0x1D4 }
  - { offset: 0x2540AE, size: 0x8, addend: 0x0, symName: __ZNK11gguf_writer5writeIiEEvRKT_, symObjAddr: 0xAD18, symBinAddr: 0x9FF30, symSize: 0x610 }
  - { offset: 0x2544FC, size: 0x8, addend: 0x0, symName: __ZNSt3__16vectorIaNS_9allocatorIaEEE18__insert_with_sizeB8ne180100INS_11__wrap_iterIPKaEES8_EENS5_IPaEES8_T_T0_l, symObjAddr: 0xB328, symBinAddr: 0xA0540, symSize: 0x398 }
  - { offset: 0x254518, size: 0x8, addend: 0x0, symName: __ZNK11gguf_writer5writeIyEEvRKT_, symObjAddr: 0xAA94, symBinAddr: 0x9FD48, symSize: 0x1D4 }
  - { offset: 0x2549C8, size: 0x8, addend: 0x0, symName: __ZNKSt3__16vectorIaNS_9allocatorIaEEE20__throw_length_errorB8ne180100Ev, symObjAddr: 0xAC68, symBinAddr: 0x9FF1C, symSize: 0x14 }
  - { offset: 0x2549E4, size: 0x8, addend: 0x0, symName: __ZNSt3__16vectorIaNS_9allocatorIaEEE18__insert_with_sizeB8ne180100INS_11__wrap_iterIPKaEES8_EENS5_IPaEES8_T_T0_l, symObjAddr: 0xB328, symBinAddr: 0xA0540, symSize: 0x398 }
  - { offset: 0x25569C, size: 0x8, addend: 0x0, symName: __ZNK11gguf_writer5writeEPKc, symObjAddr: 0xB6C0, symBinAddr: 0xA08D8, symSize: 0x104 }
  - { offset: 0x2556E3, size: 0x8, addend: 0x0, symName: __ZNK11gguf_writer5writeEPKc, symObjAddr: 0xB6C0, symBinAddr: 0xA08D8, symSize: 0x104 }
  - { offset: 0x255FA9, size: 0x8, addend: 0x0, symName: _gguf_write_to_file, symObjAddr: 0xA5C8, symBinAddr: 0x9F87C, symSize: 0x104 }
  - { offset: 0x256425, size: 0x8, addend: 0x0, symName: _gguf_get_meta_size, symObjAddr: 0xA6CC, symBinAddr: 0x9F980, symSize: 0x68 }
  - { offset: 0x256799, size: 0x8, addend: 0x0, symName: _gguf_get_meta_data, symObjAddr: 0xA734, symBinAddr: 0x9F9E8, symSize: 0x78 }
  - { offset: 0x2572E8, size: 0x8, addend: 0x0, symName: __ZNSt3__13mapI9gguf_typemNS_4lessIS1_EENS_9allocatorINS_4pairIKS1_mEEEEEC2B8ne180100ESt16initializer_listIS7_ERKS3_, symObjAddr: 0xB7C4, symBinAddr: 0xA09DC, symSize: 0xF0 }
  - { offset: 0x257709, size: 0x8, addend: 0x0, symName: __ZNSt3__16__treeINS_12__value_typeI9gguf_typemEENS_19__map_value_compareIS2_S3_NS_4lessIS2_EELb1EEENS_9allocatorIS3_EEE12__find_equalIS2_EERPNS_16__tree_node_baseIPvEENS_21__tree_const_iteratorIS3_PNS_11__tree_nodeIS3_SD_EElEERPNS_15__tree_end_nodeISF_EESG_RKT_, symObjAddr: 0xB8B4, symBinAddr: 0xA0ACC, symSize: 0x1B0 }
  - { offset: 0x257773, size: 0x8, addend: 0x0, symName: __ZNSt3__16__treeINS_12__value_typeI9gguf_typemEENS_19__map_value_compareIS2_S3_NS_4lessIS2_EELb1EEENS_9allocatorIS3_EEE12__find_equalIS2_EERPNS_16__tree_node_baseIPvEENS_21__tree_const_iteratorIS3_PNS_11__tree_nodeIS3_SD_EElEERPNS_15__tree_end_nodeISF_EESG_RKT_, symObjAddr: 0xB8B4, symBinAddr: 0xA0ACC, symSize: 0x1B0 }
  - { offset: 0x257791, size: 0x8, addend: 0x0, symName: __ZNSt3__16__treeINS_12__value_typeI9gguf_typemEENS_19__map_value_compareIS2_S3_NS_4lessIS2_EELb1EEENS_9allocatorIS3_EEE12__find_equalIS2_EERPNS_16__tree_node_baseIPvEENS_21__tree_const_iteratorIS3_PNS_11__tree_nodeIS3_SD_EElEERPNS_15__tree_end_nodeISF_EESG_RKT_, symObjAddr: 0xB8B4, symBinAddr: 0xA0ACC, symSize: 0x1B0 }
  - { offset: 0x257FCE, size: 0x8, addend: 0x0, symName: __ZNSt3__13mapI9gguf_typePKcNS_4lessIS1_EENS_9allocatorINS_4pairIKS1_S3_EEEEEC2B8ne180100ESt16initializer_listIS9_ERKS5_, symObjAddr: 0xBC58, symBinAddr: 0xA0CBC, symSize: 0xF0 }
  - { offset: 0x2583EF, size: 0x8, addend: 0x0, symName: __ZNSt3__16__treeINS_12__value_typeI9gguf_typePKcEENS_19__map_value_compareIS2_S5_NS_4lessIS2_EELb1EEENS_9allocatorIS5_EEE12__find_equalIS2_EERPNS_16__tree_node_baseIPvEENS_21__tree_const_iteratorIS5_PNS_11__tree_nodeIS5_SF_EElEERPNS_15__tree_end_nodeISH_EESI_RKT_, symObjAddr: 0xBD48, symBinAddr: 0xA0DAC, symSize: 0x1B0 }
  - { offset: 0x258459, size: 0x8, addend: 0x0, symName: __ZNSt3__16__treeINS_12__value_typeI9gguf_typePKcEENS_19__map_value_compareIS2_S5_NS_4lessIS2_EELb1EEENS_9allocatorIS5_EEE12__find_equalIS2_EERPNS_16__tree_node_baseIPvEENS_21__tree_const_iteratorIS5_PNS_11__tree_nodeIS5_SF_EElEERPNS_15__tree_end_nodeISH_EESI_RKT_, symObjAddr: 0xBD48, symBinAddr: 0xA0DAC, symSize: 0x1B0 }
  - { offset: 0x258477, size: 0x8, addend: 0x0, symName: __ZNSt3__16__treeINS_12__value_typeI9gguf_typePKcEENS_19__map_value_compareIS2_S5_NS_4lessIS2_EELb1EEENS_9allocatorIS5_EEE12__find_equalIS2_EERPNS_16__tree_node_baseIPvEENS_21__tree_const_iteratorIS5_PNS_11__tree_nodeIS5_SF_EElEERPNS_15__tree_end_nodeISH_EESI_RKT_, symObjAddr: 0xBD48, symBinAddr: 0xA0DAC, symSize: 0x1B0 }
  - { offset: 0x258D5F, size: 0x8, addend: 0x0, symName: __ZNSt3__16vectorI7gguf_kvNS_9allocatorIS1_EEE24__emplace_back_slow_pathIJRKNS_12basic_stringIcNS_11char_traitsIcEENS2_IcEEEERNS0_IhNS2_IhEEEEEEEPS1_DpOT_, symObjAddr: 0xC170, symBinAddr: 0xA11C0, symSize: 0x258 }
  - { offset: 0x2591CE, size: 0x8, addend: 0x0, symName: __ZNKSt3__16vectorI7gguf_kvNS_9allocatorIS1_EEE20__throw_length_errorB8ne180100Ev, symObjAddr: 0xC5FC, symBinAddr: 0xA15AC, symSize: 0x14 }
  - { offset: 0x2591F8, size: 0x8, addend: 0x0, symName: __ZNSt3__114__split_bufferI7gguf_kvRNS_9allocatorIS1_EEE5clearB8ne180100Ev, symObjAddr: 0xC610, symBinAddr: 0xA15C0, symSize: 0xBC }
  - { offset: 0x259203, size: 0x8, addend: 0x0, symName: __ZNSt3__114__split_bufferI7gguf_kvRNS_9allocatorIS1_EEED1Ev, symObjAddr: 0xC5CC, symBinAddr: 0xA157C, symSize: 0x30 }
  - { offset: 0x259589, size: 0x8, addend: 0x0, symName: __ZN7gguf_kvC2IhEERKNSt3__112basic_stringIcNS1_11char_traitsIcEENS1_9allocatorIcEEEERKNS1_6vectorIT_NS5_ISB_EEEE.cold.1, symObjAddr: 0x16528, symBinAddr: 0xF7420, symSize: 0x10 }
  - { offset: 0x2595A5, size: 0x8, addend: 0x0, symName: __ZN7gguf_kvC2IhEERKNSt3__112basic_stringIcNS1_11char_traitsIcEENS1_9allocatorIcEEEERKNS1_6vectorIT_NS5_ISB_EEEE.cold.1, symObjAddr: 0x16528, symBinAddr: 0xF7420, symSize: 0x10 }
  - { offset: 0x2595BA, size: 0x8, addend: 0x0, symName: __ZN7gguf_kvC2IhEERKNSt3__112basic_stringIcNS1_11char_traitsIcEENS1_9allocatorIcEEEERKNS1_6vectorIT_NS5_ISB_EEEE.cold.1, symObjAddr: 0x16528, symBinAddr: 0xF7420, symSize: 0x10 }
  - { offset: 0x2595D0, size: 0x8, addend: 0x0, symName: __ZN7gguf_kvC2IhEERKNSt3__112basic_stringIcNS1_11char_traitsIcEENS1_9allocatorIcEEEERKNS1_6vectorIT_NS5_ISB_EEEE.cold.1, symObjAddr: 0x16528, symBinAddr: 0xF7420, symSize: 0x10 }
  - { offset: 0x2595E5, size: 0x8, addend: 0x0, symName: __ZNSt3__114__split_bufferI7gguf_kvRNS_9allocatorIS1_EEE5clearB8ne180100Ev, symObjAddr: 0xC610, symBinAddr: 0xA15C0, symSize: 0xBC }
  - { offset: 0x259BD1, size: 0x8, addend: 0x0, symName: __ZN7gguf_kvC2IhEERKNSt3__112basic_stringIcNS1_11char_traitsIcEENS1_9allocatorIcEEEET_.cold.1, symObjAddr: 0x16538, symBinAddr: 0xF7430, symSize: 0x10 }
  - { offset: 0x259BED, size: 0x8, addend: 0x0, symName: __ZN7gguf_kvC2IhEERKNSt3__112basic_stringIcNS1_11char_traitsIcEENS1_9allocatorIcEEEET_.cold.1, symObjAddr: 0x16538, symBinAddr: 0xF7430, symSize: 0x10 }
  - { offset: 0x259C02, size: 0x8, addend: 0x0, symName: __ZN7gguf_kvC2IhEERKNSt3__112basic_stringIcNS1_11char_traitsIcEENS1_9allocatorIcEEEET_.cold.1, symObjAddr: 0x16538, symBinAddr: 0xF7430, symSize: 0x10 }
  - { offset: 0x259C18, size: 0x8, addend: 0x0, symName: __ZN7gguf_kvC2IhEERKNSt3__112basic_stringIcNS1_11char_traitsIcEENS1_9allocatorIcEEEET_.cold.1, symObjAddr: 0x16538, symBinAddr: 0xF7430, symSize: 0x10 }
  - { offset: 0x259C51, size: 0x8, addend: 0x0, symName: __ZN7gguf_kvC2IaEERKNSt3__112basic_stringIcNS1_11char_traitsIcEENS1_9allocatorIcEEEERKNS1_6vectorIT_NS5_ISB_EEEE.cold.1, symObjAddr: 0x16548, symBinAddr: 0xF7440, symSize: 0x10 }
  - { offset: 0x259C6D, size: 0x8, addend: 0x0, symName: __ZN7gguf_kvC2IaEERKNSt3__112basic_stringIcNS1_11char_traitsIcEENS1_9allocatorIcEEEERKNS1_6vectorIT_NS5_ISB_EEEE.cold.1, symObjAddr: 0x16548, symBinAddr: 0xF7440, symSize: 0x10 }
  - { offset: 0x259C82, size: 0x8, addend: 0x0, symName: __ZN7gguf_kvC2IaEERKNSt3__112basic_stringIcNS1_11char_traitsIcEENS1_9allocatorIcEEEERKNS1_6vectorIT_NS5_ISB_EEEE.cold.1, symObjAddr: 0x16548, symBinAddr: 0xF7440, symSize: 0x10 }
  - { offset: 0x259C98, size: 0x8, addend: 0x0, symName: __ZN7gguf_kvC2IaEERKNSt3__112basic_stringIcNS1_11char_traitsIcEENS1_9allocatorIcEEEERKNS1_6vectorIT_NS5_ISB_EEEE.cold.1, symObjAddr: 0x16548, symBinAddr: 0xF7440, symSize: 0x10 }
  - { offset: 0x259CAD, size: 0x8, addend: 0x0, symName: __ZN7gguf_kvC2IaEERKNSt3__112basic_stringIcNS1_11char_traitsIcEENS1_9allocatorIcEEEET_.cold.1, symObjAddr: 0x16558, symBinAddr: 0xF7450, symSize: 0x10 }
  - { offset: 0x259CC9, size: 0x8, addend: 0x0, symName: __ZN7gguf_kvC2IaEERKNSt3__112basic_stringIcNS1_11char_traitsIcEENS1_9allocatorIcEEEET_.cold.1, symObjAddr: 0x16558, symBinAddr: 0xF7450, symSize: 0x10 }
  - { offset: 0x259CDE, size: 0x8, addend: 0x0, symName: __ZN7gguf_kvC2IaEERKNSt3__112basic_stringIcNS1_11char_traitsIcEENS1_9allocatorIcEEEET_.cold.1, symObjAddr: 0x16558, symBinAddr: 0xF7450, symSize: 0x10 }
  - { offset: 0x259CF4, size: 0x8, addend: 0x0, symName: __ZN7gguf_kvC2IaEERKNSt3__112basic_stringIcNS1_11char_traitsIcEENS1_9allocatorIcEEEET_.cold.1, symObjAddr: 0x16558, symBinAddr: 0xF7450, symSize: 0x10 }
  - { offset: 0x25A01A, size: 0x8, addend: 0x0, symName: __ZNKSt3__16vectorItNS_9allocatorItEEE20__throw_length_errorB8ne180100Ev, symObjAddr: 0xD4EC, symBinAddr: 0xA249C, symSize: 0x14 }
  - { offset: 0x25A044, size: 0x8, addend: 0x0, symName: __ZNSt3__16vectorI7gguf_kvNS_9allocatorIS1_EEE24__emplace_back_slow_pathIJRKNS_12basic_stringIcNS_11char_traitsIcEENS2_IcEEEERNS0_ItNS2_ItEEEEEEEPS1_DpOT_, symObjAddr: 0xD500, symBinAddr: 0xA24B0, symSize: 0x258 }
  - { offset: 0x25A04F, size: 0x8, addend: 0x0, symName: __ZN7gguf_kvC2ItEERKNSt3__112basic_stringIcNS1_11char_traitsIcEENS1_9allocatorIcEEEERKNS1_6vectorIT_NS5_ISB_EEEE.cold.1, symObjAddr: 0x16568, symBinAddr: 0xF7460, symSize: 0x10 }
  - { offset: 0x25A06B, size: 0x8, addend: 0x0, symName: __ZN7gguf_kvC2ItEERKNSt3__112basic_stringIcNS1_11char_traitsIcEENS1_9allocatorIcEEEERKNS1_6vectorIT_NS5_ISB_EEEE.cold.1, symObjAddr: 0x16568, symBinAddr: 0xF7460, symSize: 0x10 }
  - { offset: 0x25A080, size: 0x8, addend: 0x0, symName: __ZN7gguf_kvC2ItEERKNSt3__112basic_stringIcNS1_11char_traitsIcEENS1_9allocatorIcEEEERKNS1_6vectorIT_NS5_ISB_EEEE.cold.1, symObjAddr: 0x16568, symBinAddr: 0xF7460, symSize: 0x10 }
  - { offset: 0x25A096, size: 0x8, addend: 0x0, symName: __ZN7gguf_kvC2ItEERKNSt3__112basic_stringIcNS1_11char_traitsIcEENS1_9allocatorIcEEEERKNS1_6vectorIT_NS5_ISB_EEEE.cold.1, symObjAddr: 0x16568, symBinAddr: 0xF7460, symSize: 0x10 }
  - { offset: 0x25A0AB, size: 0x8, addend: 0x0, symName: __ZN7gguf_kvC2ItEERKNSt3__112basic_stringIcNS1_11char_traitsIcEENS1_9allocatorIcEEEET_.cold.1, symObjAddr: 0x16578, symBinAddr: 0xF7470, symSize: 0x10 }
  - { offset: 0x25A0C7, size: 0x8, addend: 0x0, symName: __ZN7gguf_kvC2ItEERKNSt3__112basic_stringIcNS1_11char_traitsIcEENS1_9allocatorIcEEEET_.cold.1, symObjAddr: 0x16578, symBinAddr: 0xF7470, symSize: 0x10 }
  - { offset: 0x25A0DC, size: 0x8, addend: 0x0, symName: __ZN7gguf_kvC2ItEERKNSt3__112basic_stringIcNS1_11char_traitsIcEENS1_9allocatorIcEEEET_.cold.1, symObjAddr: 0x16578, symBinAddr: 0xF7470, symSize: 0x10 }
  - { offset: 0x25A0F2, size: 0x8, addend: 0x0, symName: __ZN7gguf_kvC2ItEERKNSt3__112basic_stringIcNS1_11char_traitsIcEENS1_9allocatorIcEEEET_.cold.1, symObjAddr: 0x16578, symBinAddr: 0xF7470, symSize: 0x10 }
  - { offset: 0x25A418, size: 0x8, addend: 0x0, symName: __ZNKSt3__16vectorIsNS_9allocatorIsEEE20__throw_length_errorB8ne180100Ev, symObjAddr: 0xDDB0, symBinAddr: 0xA2D60, symSize: 0x14 }
  - { offset: 0x25A442, size: 0x8, addend: 0x0, symName: __ZNSt3__16vectorI7gguf_kvNS_9allocatorIS1_EEE24__emplace_back_slow_pathIJRKNS_12basic_stringIcNS_11char_traitsIcEENS2_IcEEEERNS0_IsNS2_IsEEEEEEEPS1_DpOT_, symObjAddr: 0xDDC4, symBinAddr: 0xA2D74, symSize: 0x258 }
  - { offset: 0x25A44D, size: 0x8, addend: 0x0, symName: __ZN7gguf_kvC2IsEERKNSt3__112basic_stringIcNS1_11char_traitsIcEENS1_9allocatorIcEEEERKNS1_6vectorIT_NS5_ISB_EEEE.cold.1, symObjAddr: 0x16588, symBinAddr: 0xF7480, symSize: 0x10 }
  - { offset: 0x25A469, size: 0x8, addend: 0x0, symName: __ZN7gguf_kvC2IsEERKNSt3__112basic_stringIcNS1_11char_traitsIcEENS1_9allocatorIcEEEERKNS1_6vectorIT_NS5_ISB_EEEE.cold.1, symObjAddr: 0x16588, symBinAddr: 0xF7480, symSize: 0x10 }
  - { offset: 0x25A47E, size: 0x8, addend: 0x0, symName: __ZN7gguf_kvC2IsEERKNSt3__112basic_stringIcNS1_11char_traitsIcEENS1_9allocatorIcEEEERKNS1_6vectorIT_NS5_ISB_EEEE.cold.1, symObjAddr: 0x16588, symBinAddr: 0xF7480, symSize: 0x10 }
  - { offset: 0x25A494, size: 0x8, addend: 0x0, symName: __ZN7gguf_kvC2IsEERKNSt3__112basic_stringIcNS1_11char_traitsIcEENS1_9allocatorIcEEEERKNS1_6vectorIT_NS5_ISB_EEEE.cold.1, symObjAddr: 0x16588, symBinAddr: 0xF7480, symSize: 0x10 }
  - { offset: 0x25A4A9, size: 0x8, addend: 0x0, symName: __ZN7gguf_kvC2IsEERKNSt3__112basic_stringIcNS1_11char_traitsIcEENS1_9allocatorIcEEEET_.cold.1, symObjAddr: 0x16598, symBinAddr: 0xF7490, symSize: 0x10 }
  - { offset: 0x25A4C5, size: 0x8, addend: 0x0, symName: __ZN7gguf_kvC2IsEERKNSt3__112basic_stringIcNS1_11char_traitsIcEENS1_9allocatorIcEEEET_.cold.1, symObjAddr: 0x16598, symBinAddr: 0xF7490, symSize: 0x10 }
  - { offset: 0x25A4DA, size: 0x8, addend: 0x0, symName: __ZN7gguf_kvC2IsEERKNSt3__112basic_stringIcNS1_11char_traitsIcEENS1_9allocatorIcEEEET_.cold.1, symObjAddr: 0x16598, symBinAddr: 0xF7490, symSize: 0x10 }
  - { offset: 0x25A4F0, size: 0x8, addend: 0x0, symName: __ZN7gguf_kvC2IsEERKNSt3__112basic_stringIcNS1_11char_traitsIcEENS1_9allocatorIcEEEET_.cold.1, symObjAddr: 0x16598, symBinAddr: 0xF7490, symSize: 0x10 }
  - { offset: 0x25A811, size: 0x8, addend: 0x0, symName: __ZNSt3__16vectorI7gguf_kvNS_9allocatorIS1_EEE24__emplace_back_slow_pathIJRKNS_12basic_stringIcNS_11char_traitsIcEENS2_IcEEEERNS0_IjNS2_IjEEEEEEEPS1_DpOT_, symObjAddr: 0xE694, symBinAddr: 0xA3630, symSize: 0x258 }
  - { offset: 0x25A81C, size: 0x8, addend: 0x0, symName: __ZN7gguf_kvC2IjEERKNSt3__112basic_stringIcNS1_11char_traitsIcEENS1_9allocatorIcEEEERKNS1_6vectorIT_NS5_ISB_EEEE.cold.1, symObjAddr: 0x165A8, symBinAddr: 0xF74A0, symSize: 0x10 }
  - { offset: 0x25A838, size: 0x8, addend: 0x0, symName: __ZN7gguf_kvC2IjEERKNSt3__112basic_stringIcNS1_11char_traitsIcEENS1_9allocatorIcEEEERKNS1_6vectorIT_NS5_ISB_EEEE.cold.1, symObjAddr: 0x165A8, symBinAddr: 0xF74A0, symSize: 0x10 }
  - { offset: 0x25A84D, size: 0x8, addend: 0x0, symName: __ZN7gguf_kvC2IjEERKNSt3__112basic_stringIcNS1_11char_traitsIcEENS1_9allocatorIcEEEERKNS1_6vectorIT_NS5_ISB_EEEE.cold.1, symObjAddr: 0x165A8, symBinAddr: 0xF74A0, symSize: 0x10 }
  - { offset: 0x25A863, size: 0x8, addend: 0x0, symName: __ZN7gguf_kvC2IjEERKNSt3__112basic_stringIcNS1_11char_traitsIcEENS1_9allocatorIcEEEERKNS1_6vectorIT_NS5_ISB_EEEE.cold.1, symObjAddr: 0x165A8, symBinAddr: 0xF74A0, symSize: 0x10 }
  - { offset: 0x25A878, size: 0x8, addend: 0x0, symName: __ZN7gguf_kvC2IjEERKNSt3__112basic_stringIcNS1_11char_traitsIcEENS1_9allocatorIcEEEET_.cold.1, symObjAddr: 0x165B8, symBinAddr: 0xF74B0, symSize: 0x10 }
  - { offset: 0x25A894, size: 0x8, addend: 0x0, symName: __ZN7gguf_kvC2IjEERKNSt3__112basic_stringIcNS1_11char_traitsIcEENS1_9allocatorIcEEEET_.cold.1, symObjAddr: 0x165B8, symBinAddr: 0xF74B0, symSize: 0x10 }
  - { offset: 0x25A8A9, size: 0x8, addend: 0x0, symName: __ZN7gguf_kvC2IjEERKNSt3__112basic_stringIcNS1_11char_traitsIcEENS1_9allocatorIcEEEET_.cold.1, symObjAddr: 0x165B8, symBinAddr: 0xF74B0, symSize: 0x10 }
  - { offset: 0x25A8BF, size: 0x8, addend: 0x0, symName: __ZN7gguf_kvC2IjEERKNSt3__112basic_stringIcNS1_11char_traitsIcEENS1_9allocatorIcEEEET_.cold.1, symObjAddr: 0x165B8, symBinAddr: 0xF74B0, symSize: 0x10 }
  - { offset: 0x25ABD4, size: 0x8, addend: 0x0, symName: __ZNSt3__16vectorI7gguf_kvNS_9allocatorIS1_EEE24__emplace_back_slow_pathIJRKNS_12basic_stringIcNS_11char_traitsIcEENS2_IcEEEERNS0_IiNS2_IiEEEEEEEPS1_DpOT_, symObjAddr: 0xEF64, symBinAddr: 0xA3D50, symSize: 0x258 }
  - { offset: 0x25ABDF, size: 0x8, addend: 0x0, symName: __ZN7gguf_kvC2IiEERKNSt3__112basic_stringIcNS1_11char_traitsIcEENS1_9allocatorIcEEEERKNS1_6vectorIT_NS5_ISB_EEEE.cold.1, symObjAddr: 0x165C8, symBinAddr: 0xF74C0, symSize: 0x10 }
  - { offset: 0x25ABFB, size: 0x8, addend: 0x0, symName: __ZN7gguf_kvC2IiEERKNSt3__112basic_stringIcNS1_11char_traitsIcEENS1_9allocatorIcEEEERKNS1_6vectorIT_NS5_ISB_EEEE.cold.1, symObjAddr: 0x165C8, symBinAddr: 0xF74C0, symSize: 0x10 }
  - { offset: 0x25AC10, size: 0x8, addend: 0x0, symName: __ZN7gguf_kvC2IiEERKNSt3__112basic_stringIcNS1_11char_traitsIcEENS1_9allocatorIcEEEERKNS1_6vectorIT_NS5_ISB_EEEE.cold.1, symObjAddr: 0x165C8, symBinAddr: 0xF74C0, symSize: 0x10 }
  - { offset: 0x25AC26, size: 0x8, addend: 0x0, symName: __ZN7gguf_kvC2IiEERKNSt3__112basic_stringIcNS1_11char_traitsIcEENS1_9allocatorIcEEEERKNS1_6vectorIT_NS5_ISB_EEEE.cold.1, symObjAddr: 0x165C8, symBinAddr: 0xF74C0, symSize: 0x10 }
  - { offset: 0x25AC3B, size: 0x8, addend: 0x0, symName: __ZN7gguf_kvC2IiEERKNSt3__112basic_stringIcNS1_11char_traitsIcEENS1_9allocatorIcEEEET_.cold.1, symObjAddr: 0x165D8, symBinAddr: 0xF74D0, symSize: 0x10 }
  - { offset: 0x25AC57, size: 0x8, addend: 0x0, symName: __ZN7gguf_kvC2IiEERKNSt3__112basic_stringIcNS1_11char_traitsIcEENS1_9allocatorIcEEEET_.cold.1, symObjAddr: 0x165D8, symBinAddr: 0xF74D0, symSize: 0x10 }
  - { offset: 0x25AC6C, size: 0x8, addend: 0x0, symName: __ZN7gguf_kvC2IiEERKNSt3__112basic_stringIcNS1_11char_traitsIcEENS1_9allocatorIcEEEET_.cold.1, symObjAddr: 0x165D8, symBinAddr: 0xF74D0, symSize: 0x10 }
  - { offset: 0x25AC82, size: 0x8, addend: 0x0, symName: __ZN7gguf_kvC2IiEERKNSt3__112basic_stringIcNS1_11char_traitsIcEENS1_9allocatorIcEEEET_.cold.1, symObjAddr: 0x165D8, symBinAddr: 0xF74D0, symSize: 0x10 }
  - { offset: 0x25AF97, size: 0x8, addend: 0x0, symName: __ZNSt3__16vectorI7gguf_kvNS_9allocatorIS1_EEE24__emplace_back_slow_pathIJRKNS_12basic_stringIcNS_11char_traitsIcEENS2_IcEEEERNS0_IfNS2_IfEEEEEEEPS1_DpOT_, symObjAddr: 0xF834, symBinAddr: 0xA4470, symSize: 0x258 }
  - { offset: 0x25AFA2, size: 0x8, addend: 0x0, symName: __ZN7gguf_kvC2IfEERKNSt3__112basic_stringIcNS1_11char_traitsIcEENS1_9allocatorIcEEEERKNS1_6vectorIT_NS5_ISB_EEEE.cold.1, symObjAddr: 0x165E8, symBinAddr: 0xF74E0, symSize: 0x10 }
  - { offset: 0x25AFBE, size: 0x8, addend: 0x0, symName: __ZN7gguf_kvC2IfEERKNSt3__112basic_stringIcNS1_11char_traitsIcEENS1_9allocatorIcEEEERKNS1_6vectorIT_NS5_ISB_EEEE.cold.1, symObjAddr: 0x165E8, symBinAddr: 0xF74E0, symSize: 0x10 }
  - { offset: 0x25AFD3, size: 0x8, addend: 0x0, symName: __ZN7gguf_kvC2IfEERKNSt3__112basic_stringIcNS1_11char_traitsIcEENS1_9allocatorIcEEEERKNS1_6vectorIT_NS5_ISB_EEEE.cold.1, symObjAddr: 0x165E8, symBinAddr: 0xF74E0, symSize: 0x10 }
  - { offset: 0x25AFE9, size: 0x8, addend: 0x0, symName: __ZN7gguf_kvC2IfEERKNSt3__112basic_stringIcNS1_11char_traitsIcEENS1_9allocatorIcEEEERKNS1_6vectorIT_NS5_ISB_EEEE.cold.1, symObjAddr: 0x165E8, symBinAddr: 0xF74E0, symSize: 0x10 }
  - { offset: 0x25AFFE, size: 0x8, addend: 0x0, symName: __ZN7gguf_kvC2IfEERKNSt3__112basic_stringIcNS1_11char_traitsIcEENS1_9allocatorIcEEEET_.cold.1, symObjAddr: 0x165F8, symBinAddr: 0xF74F0, symSize: 0x10 }
  - { offset: 0x25B01A, size: 0x8, addend: 0x0, symName: __ZN7gguf_kvC2IfEERKNSt3__112basic_stringIcNS1_11char_traitsIcEENS1_9allocatorIcEEEET_.cold.1, symObjAddr: 0x165F8, symBinAddr: 0xF74F0, symSize: 0x10 }
  - { offset: 0x25B02F, size: 0x8, addend: 0x0, symName: __ZN7gguf_kvC2IfEERKNSt3__112basic_stringIcNS1_11char_traitsIcEENS1_9allocatorIcEEEET_.cold.1, symObjAddr: 0x165F8, symBinAddr: 0xF74F0, symSize: 0x10 }
  - { offset: 0x25B045, size: 0x8, addend: 0x0, symName: __ZN7gguf_kvC2IfEERKNSt3__112basic_stringIcNS1_11char_traitsIcEENS1_9allocatorIcEEEET_.cold.1, symObjAddr: 0x165F8, symBinAddr: 0xF74F0, symSize: 0x10 }
  - { offset: 0x25B1ED, size: 0x8, addend: 0x0, symName: __ZNSt3__16vectorIbNS_9allocatorIbEEE7reserveEm, symObjAddr: 0x101BC, symBinAddr: 0xA4DF8, symSize: 0x100 }
  - { offset: 0x25B5FD, size: 0x8, addend: 0x0, symName: __ZNKSt3__16vectorIbNS_9allocatorIbEEE20__throw_length_errorB8ne180100Ev, symObjAddr: 0x102BC, symBinAddr: 0xA4EF8, symSize: 0x14 }
  - { offset: 0x25B610, size: 0x8, addend: 0x0, symName: __ZNKSt3__16vectorIbNS_9allocatorIbEEE20__throw_length_errorB8ne180100Ev, symObjAddr: 0x102BC, symBinAddr: 0xA4EF8, symSize: 0x14 }
  - { offset: 0x25B63A, size: 0x8, addend: 0x0, symName: __ZNSt3__16vectorI7gguf_kvNS_9allocatorIS1_EEE24__emplace_back_slow_pathIJRKNS_12basic_stringIcNS_11char_traitsIcEENS2_IcEEEERNS0_IbNS2_IbEEEEEEEPS1_DpOT_, symObjAddr: 0x102D0, symBinAddr: 0xA4F0C, symSize: 0x258 }
  - { offset: 0x25B859, size: 0x8, addend: 0x0, symName: __ZN7gguf_kvC2IbEERKNSt3__112basic_stringIcNS1_11char_traitsIcEENS1_9allocatorIcEEEERKNS1_6vectorIT_NS5_ISB_EEEE.cold.1, symObjAddr: 0x16608, symBinAddr: 0xF7500, symSize: 0x10 }
  - { offset: 0x25B875, size: 0x8, addend: 0x0, symName: __ZN7gguf_kvC2IbEERKNSt3__112basic_stringIcNS1_11char_traitsIcEENS1_9allocatorIcEEEERKNS1_6vectorIT_NS5_ISB_EEEE.cold.1, symObjAddr: 0x16608, symBinAddr: 0xF7500, symSize: 0x10 }
  - { offset: 0x25B88A, size: 0x8, addend: 0x0, symName: __ZN7gguf_kvC2IbEERKNSt3__112basic_stringIcNS1_11char_traitsIcEENS1_9allocatorIcEEEERKNS1_6vectorIT_NS5_ISB_EEEE.cold.1, symObjAddr: 0x16608, symBinAddr: 0xF7500, symSize: 0x10 }
  - { offset: 0x25B8A0, size: 0x8, addend: 0x0, symName: __ZN7gguf_kvC2IbEERKNSt3__112basic_stringIcNS1_11char_traitsIcEENS1_9allocatorIcEEEERKNS1_6vectorIT_NS5_ISB_EEEE.cold.1, symObjAddr: 0x16608, symBinAddr: 0xF7500, symSize: 0x10 }
  - { offset: 0x25B8B5, size: 0x8, addend: 0x0, symName: __ZN7gguf_kvC2IbEERKNSt3__112basic_stringIcNS1_11char_traitsIcEENS1_9allocatorIcEEEET_.cold.1, symObjAddr: 0x16618, symBinAddr: 0xF7510, symSize: 0x10 }
  - { offset: 0x25B8D1, size: 0x8, addend: 0x0, symName: __ZN7gguf_kvC2IbEERKNSt3__112basic_stringIcNS1_11char_traitsIcEENS1_9allocatorIcEEEET_.cold.1, symObjAddr: 0x16618, symBinAddr: 0xF7510, symSize: 0x10 }
  - { offset: 0x25B8E6, size: 0x8, addend: 0x0, symName: __ZN7gguf_kvC2IbEERKNSt3__112basic_stringIcNS1_11char_traitsIcEENS1_9allocatorIcEEEET_.cold.1, symObjAddr: 0x16618, symBinAddr: 0xF7510, symSize: 0x10 }
  - { offset: 0x25B8FC, size: 0x8, addend: 0x0, symName: __ZN7gguf_kvC2IbEERKNSt3__112basic_stringIcNS1_11char_traitsIcEENS1_9allocatorIcEEEET_.cold.1, symObjAddr: 0x16618, symBinAddr: 0xF7510, symSize: 0x10 }
  - { offset: 0x25B971, size: 0x8, addend: 0x0, symName: __ZNSt3__16vectorINS_12basic_stringIcNS_11char_traitsIcEENS_9allocatorIcEEEENS4_IS6_EEE8__appendEm, symObjAddr: 0x10B70, symBinAddr: 0xA57AC, symSize: 0x1F4 }
  - { offset: 0x25C55B, size: 0x8, addend: 0x0, symName: __ZNSt3__16vectorINS_12basic_stringIcNS_11char_traitsIcEENS_9allocatorIcEEEENS4_IS6_EEE18__assign_with_sizeB8ne180100IPS6_SA_EEvT_T0_l, symObjAddr: 0x11154, symBinAddr: 0xA5D18, symSize: 0x304 }
  - { offset: 0x25D589, size: 0x8, addend: 0x0, symName: __ZN7gguf_kvC2ERKNSt3__112basic_stringIcNS0_11char_traitsIcEENS0_9allocatorIcEEEERKNS0_6vectorIS6_NS4_IS6_EEEE.cold.1, symObjAddr: 0x16628, symBinAddr: 0xF7520, symSize: 0x10 }
  - { offset: 0x25D5A5, size: 0x8, addend: 0x0, symName: __ZN7gguf_kvC2ERKNSt3__112basic_stringIcNS0_11char_traitsIcEENS0_9allocatorIcEEEERKNS0_6vectorIS6_NS4_IS6_EEEE.cold.1, symObjAddr: 0x16628, symBinAddr: 0xF7520, symSize: 0x10 }
  - { offset: 0x25D5BA, size: 0x8, addend: 0x0, symName: __ZN7gguf_kvC2ERKNSt3__112basic_stringIcNS0_11char_traitsIcEENS0_9allocatorIcEEEERKNS0_6vectorIS6_NS4_IS6_EEEE.cold.1, symObjAddr: 0x16628, symBinAddr: 0xF7520, symSize: 0x10 }
  - { offset: 0x25D5D0, size: 0x8, addend: 0x0, symName: __ZN7gguf_kvC2ERKNSt3__112basic_stringIcNS0_11char_traitsIcEENS0_9allocatorIcEEEERKNS0_6vectorIS6_NS4_IS6_EEEE.cold.1, symObjAddr: 0x16628, symBinAddr: 0xF7520, symSize: 0x10 }
  - { offset: 0x25DC89, size: 0x8, addend: 0x0, symName: __ZN7gguf_kvC2ERKNSt3__112basic_stringIcNS0_11char_traitsIcEENS0_9allocatorIcEEEES8_.cold.1, symObjAddr: 0x16638, symBinAddr: 0xF7530, symSize: 0x10 }
  - { offset: 0x25DCA5, size: 0x8, addend: 0x0, symName: __ZN7gguf_kvC2ERKNSt3__112basic_stringIcNS0_11char_traitsIcEENS0_9allocatorIcEEEES8_.cold.1, symObjAddr: 0x16638, symBinAddr: 0xF7530, symSize: 0x10 }
  - { offset: 0x25DCBA, size: 0x8, addend: 0x0, symName: __ZN7gguf_kvC2ERKNSt3__112basic_stringIcNS0_11char_traitsIcEENS0_9allocatorIcEEEES8_.cold.1, symObjAddr: 0x16638, symBinAddr: 0xF7530, symSize: 0x10 }
  - { offset: 0x25DCD0, size: 0x8, addend: 0x0, symName: __ZN7gguf_kvC2ERKNSt3__112basic_stringIcNS0_11char_traitsIcEENS0_9allocatorIcEEEES8_.cold.1, symObjAddr: 0x16638, symBinAddr: 0xF7530, symSize: 0x10 }
  - { offset: 0x25E12A, size: 0x8, addend: 0x0, symName: __ZNKSt3__16vectorIyNS_9allocatorIyEEE20__throw_length_errorB8ne180100Ev, symObjAddr: 0x11B24, symBinAddr: 0xA6514, symSize: 0x14 }
  - { offset: 0x25E154, size: 0x8, addend: 0x0, symName: __ZNSt3__16vectorI7gguf_kvNS_9allocatorIS1_EEE24__emplace_back_slow_pathIJRKNS_12basic_stringIcNS_11char_traitsIcEENS2_IcEEEERNS0_IyNS2_IyEEEEEEEPS1_DpOT_, symObjAddr: 0x11B38, symBinAddr: 0xA6528, symSize: 0x258 }
  - { offset: 0x25E15F, size: 0x8, addend: 0x0, symName: __ZN7gguf_kvC2IyEERKNSt3__112basic_stringIcNS1_11char_traitsIcEENS1_9allocatorIcEEEERKNS1_6vectorIT_NS5_ISB_EEEE.cold.1, symObjAddr: 0x16648, symBinAddr: 0xF7540, symSize: 0x10 }
  - { offset: 0x25E17B, size: 0x8, addend: 0x0, symName: __ZN7gguf_kvC2IyEERKNSt3__112basic_stringIcNS1_11char_traitsIcEENS1_9allocatorIcEEEERKNS1_6vectorIT_NS5_ISB_EEEE.cold.1, symObjAddr: 0x16648, symBinAddr: 0xF7540, symSize: 0x10 }
  - { offset: 0x25E190, size: 0x8, addend: 0x0, symName: __ZN7gguf_kvC2IyEERKNSt3__112basic_stringIcNS1_11char_traitsIcEENS1_9allocatorIcEEEERKNS1_6vectorIT_NS5_ISB_EEEE.cold.1, symObjAddr: 0x16648, symBinAddr: 0xF7540, symSize: 0x10 }
  - { offset: 0x25E1A6, size: 0x8, addend: 0x0, symName: __ZN7gguf_kvC2IyEERKNSt3__112basic_stringIcNS1_11char_traitsIcEENS1_9allocatorIcEEEERKNS1_6vectorIT_NS5_ISB_EEEE.cold.1, symObjAddr: 0x16648, symBinAddr: 0xF7540, symSize: 0x10 }
  - { offset: 0x25E1BB, size: 0x8, addend: 0x0, symName: __ZN7gguf_kvC2IyEERKNSt3__112basic_stringIcNS1_11char_traitsIcEENS1_9allocatorIcEEEET_.cold.1, symObjAddr: 0x16658, symBinAddr: 0xF7550, symSize: 0x10 }
  - { offset: 0x25E1D7, size: 0x8, addend: 0x0, symName: __ZN7gguf_kvC2IyEERKNSt3__112basic_stringIcNS1_11char_traitsIcEENS1_9allocatorIcEEEET_.cold.1, symObjAddr: 0x16658, symBinAddr: 0xF7550, symSize: 0x10 }
  - { offset: 0x25E1EC, size: 0x8, addend: 0x0, symName: __ZN7gguf_kvC2IyEERKNSt3__112basic_stringIcNS1_11char_traitsIcEENS1_9allocatorIcEEEET_.cold.1, symObjAddr: 0x16658, symBinAddr: 0xF7550, symSize: 0x10 }
  - { offset: 0x25E202, size: 0x8, addend: 0x0, symName: __ZN7gguf_kvC2IyEERKNSt3__112basic_stringIcNS1_11char_traitsIcEENS1_9allocatorIcEEEET_.cold.1, symObjAddr: 0x16658, symBinAddr: 0xF7550, symSize: 0x10 }
  - { offset: 0x25E517, size: 0x8, addend: 0x0, symName: __ZNSt3__16vectorI7gguf_kvNS_9allocatorIS1_EEE24__emplace_back_slow_pathIJRKNS_12basic_stringIcNS_11char_traitsIcEENS2_IcEEEERNS0_IxNS2_IxEEEEEEEPS1_DpOT_, symObjAddr: 0x12408, symBinAddr: 0xA6C48, symSize: 0x258 }
  - { offset: 0x25E522, size: 0x8, addend: 0x0, symName: __ZN7gguf_kvC2IxEERKNSt3__112basic_stringIcNS1_11char_traitsIcEENS1_9allocatorIcEEEERKNS1_6vectorIT_NS5_ISB_EEEE.cold.1, symObjAddr: 0x16668, symBinAddr: 0xF7560, symSize: 0x10 }
  - { offset: 0x25E53E, size: 0x8, addend: 0x0, symName: __ZN7gguf_kvC2IxEERKNSt3__112basic_stringIcNS1_11char_traitsIcEENS1_9allocatorIcEEEERKNS1_6vectorIT_NS5_ISB_EEEE.cold.1, symObjAddr: 0x16668, symBinAddr: 0xF7560, symSize: 0x10 }
  - { offset: 0x25E553, size: 0x8, addend: 0x0, symName: __ZN7gguf_kvC2IxEERKNSt3__112basic_stringIcNS1_11char_traitsIcEENS1_9allocatorIcEEEERKNS1_6vectorIT_NS5_ISB_EEEE.cold.1, symObjAddr: 0x16668, symBinAddr: 0xF7560, symSize: 0x10 }
  - { offset: 0x25E569, size: 0x8, addend: 0x0, symName: __ZN7gguf_kvC2IxEERKNSt3__112basic_stringIcNS1_11char_traitsIcEENS1_9allocatorIcEEEERKNS1_6vectorIT_NS5_ISB_EEEE.cold.1, symObjAddr: 0x16668, symBinAddr: 0xF7560, symSize: 0x10 }
  - { offset: 0x25E57E, size: 0x8, addend: 0x0, symName: __ZN7gguf_kvC2IxEERKNSt3__112basic_stringIcNS1_11char_traitsIcEENS1_9allocatorIcEEEET_.cold.1, symObjAddr: 0x16678, symBinAddr: 0xF7570, symSize: 0x10 }
  - { offset: 0x25E59A, size: 0x8, addend: 0x0, symName: __ZN7gguf_kvC2IxEERKNSt3__112basic_stringIcNS1_11char_traitsIcEENS1_9allocatorIcEEEET_.cold.1, symObjAddr: 0x16678, symBinAddr: 0xF7570, symSize: 0x10 }
  - { offset: 0x25E5AF, size: 0x8, addend: 0x0, symName: __ZN7gguf_kvC2IxEERKNSt3__112basic_stringIcNS1_11char_traitsIcEENS1_9allocatorIcEEEET_.cold.1, symObjAddr: 0x16678, symBinAddr: 0xF7570, symSize: 0x10 }
  - { offset: 0x25E5C5, size: 0x8, addend: 0x0, symName: __ZN7gguf_kvC2IxEERKNSt3__112basic_stringIcNS1_11char_traitsIcEENS1_9allocatorIcEEEET_.cold.1, symObjAddr: 0x16678, symBinAddr: 0xF7570, symSize: 0x10 }
  - { offset: 0x25E8E6, size: 0x8, addend: 0x0, symName: __ZNSt3__16vectorI7gguf_kvNS_9allocatorIS1_EEE24__emplace_back_slow_pathIJRKNS_12basic_stringIcNS_11char_traitsIcEENS2_IcEEEERNS0_IdNS2_IdEEEEEEEPS1_DpOT_, symObjAddr: 0x12CD8, symBinAddr: 0xA7504, symSize: 0x258 }
  - { offset: 0x25E8F1, size: 0x8, addend: 0x0, symName: __ZN7gguf_kvC2IdEERKNSt3__112basic_stringIcNS1_11char_traitsIcEENS1_9allocatorIcEEEERKNS1_6vectorIT_NS5_ISB_EEEE.cold.1, symObjAddr: 0x16688, symBinAddr: 0xF7580, symSize: 0x10 }
  - { offset: 0x25E90D, size: 0x8, addend: 0x0, symName: __ZN7gguf_kvC2IdEERKNSt3__112basic_stringIcNS1_11char_traitsIcEENS1_9allocatorIcEEEERKNS1_6vectorIT_NS5_ISB_EEEE.cold.1, symObjAddr: 0x16688, symBinAddr: 0xF7580, symSize: 0x10 }
  - { offset: 0x25E922, size: 0x8, addend: 0x0, symName: __ZN7gguf_kvC2IdEERKNSt3__112basic_stringIcNS1_11char_traitsIcEENS1_9allocatorIcEEEERKNS1_6vectorIT_NS5_ISB_EEEE.cold.1, symObjAddr: 0x16688, symBinAddr: 0xF7580, symSize: 0x10 }
  - { offset: 0x25E938, size: 0x8, addend: 0x0, symName: __ZN7gguf_kvC2IdEERKNSt3__112basic_stringIcNS1_11char_traitsIcEENS1_9allocatorIcEEEERKNS1_6vectorIT_NS5_ISB_EEEE.cold.1, symObjAddr: 0x16688, symBinAddr: 0xF7580, symSize: 0x10 }
  - { offset: 0x25E94D, size: 0x8, addend: 0x0, symName: __ZN7gguf_kvC2IdEERKNSt3__112basic_stringIcNS1_11char_traitsIcEENS1_9allocatorIcEEEET_.cold.1, symObjAddr: 0x16698, symBinAddr: 0xF7590, symSize: 0x10 }
  - { offset: 0x25E969, size: 0x8, addend: 0x0, symName: __ZN7gguf_kvC2IdEERKNSt3__112basic_stringIcNS1_11char_traitsIcEENS1_9allocatorIcEEEET_.cold.1, symObjAddr: 0x16698, symBinAddr: 0xF7590, symSize: 0x10 }
  - { offset: 0x25E97E, size: 0x8, addend: 0x0, symName: __ZN7gguf_kvC2IdEERKNSt3__112basic_stringIcNS1_11char_traitsIcEENS1_9allocatorIcEEEET_.cold.1, symObjAddr: 0x16698, symBinAddr: 0xF7590, symSize: 0x10 }
  - { offset: 0x25E994, size: 0x8, addend: 0x0, symName: __ZN7gguf_kvC2IdEERKNSt3__112basic_stringIcNS1_11char_traitsIcEENS1_9allocatorIcEEEET_.cold.1, symObjAddr: 0x16698, symBinAddr: 0xF7590, symSize: 0x10 }
  - { offset: 0x25EB0C, size: 0x8, addend: 0x0, symName: _OUTLINED_FUNCTION_0, symObjAddr: 0x166A8, symBinAddr: 0xAACF4, symSize: 0x8 }
  - { offset: 0x2608A6, size: 0x8, addend: 0x0, symName: __MergedGlobals, symObjAddr: 0x7CB8, symBinAddr: 0x12C8B8, symSize: 0x0 }
  - { offset: 0x260A1C, size: 0x8, addend: 0x0, symName: __MergedGlobals, symObjAddr: 0x7CB8, symBinAddr: 0x12C8B8, symSize: 0x0 }
  - { offset: 0x260B3C, size: 0x8, addend: 0x0, symName: __MergedGlobals, symObjAddr: 0x7CB8, symBinAddr: 0x12C8B8, symSize: 0x0 }
  - { offset: 0x260C5C, size: 0x8, addend: 0x0, symName: __MergedGlobals, symObjAddr: 0x7CB8, symBinAddr: 0x12C8B8, symSize: 0x0 }
  - { offset: 0x260D70, size: 0x8, addend: 0x0, symName: __ZN4ggml3cpu7aarch646repackI10block_q4_0Lx4ELx4EEEiP11ggml_tensorPKvm, symObjAddr: 0x0, symBinAddr: 0xAAE38, symSize: 0x10 }
  - { offset: 0x260DCE, size: 0x8, addend: 0x0, symName: __ZN4ggml3cpu7aarch646repackI10block_q4_0Lx8ELx4EEEiP11ggml_tensorPKvm, symObjAddr: 0x3F4, symBinAddr: 0xAB22C, symSize: 0x10 }
  - { offset: 0x260E2C, size: 0x8, addend: 0x0, symName: __ZN4ggml3cpu7aarch646repackI10block_q4_0Lx8ELx8EEEiP11ggml_tensorPKvm, symObjAddr: 0x404, symBinAddr: 0xAB23C, symSize: 0x2B4 }
  - { offset: 0x260FA4, size: 0x8, addend: 0x0, symName: __ZN4ggml3cpu7aarch646repackI12block_iq4_nlLx4ELx4EEEiP11ggml_tensorPKvm, symObjAddr: 0x6B8, symBinAddr: 0xAB4F0, symSize: 0x21C }
  - { offset: 0x260FD5, size: 0x8, addend: 0x0, symName: __ZN4ggml3cpu7aarch646repackI12block_iq4_nlLx4ELx4EEEiP11ggml_tensorPKvm, symObjAddr: 0x6B8, symBinAddr: 0xAB4F0, symSize: 0x21C }
  - { offset: 0x2610F2, size: 0x8, addend: 0x0, symName: __ZN4ggml3cpu7aarch644gemvI10block_q4_0Lx4ELx4EEEviPfmPKvS6_ii, symObjAddr: 0x8D4, symBinAddr: 0xAB70C, symSize: 0x2BC }
  - { offset: 0x261123, size: 0x8, addend: 0x0, symName: __ZN4ggml3cpu7aarch644gemvI10block_q4_0Lx4ELx4EEEviPfmPKvS6_ii, symObjAddr: 0x8D4, symBinAddr: 0xAB70C, symSize: 0x2BC }
  - { offset: 0x2612AB, size: 0x8, addend: 0x0, symName: __ZN4ggml3cpu7aarch644gemvI10block_q4_0Lx8ELx4EEEviPfmPKvS6_ii, symObjAddr: 0xB90, symBinAddr: 0xAB9C8, symSize: 0x4A0 }
  - { offset: 0x261401, size: 0x8, addend: 0x0, symName: __ZN4ggml3cpu7aarch644gemvI10block_q4_0Lx8ELx8EEEviPfmPKvS6_ii, symObjAddr: 0x1030, symBinAddr: 0xABE68, symSize: 0x34C }
  - { offset: 0x261590, size: 0x8, addend: 0x0, symName: __ZN4ggml3cpu7aarch644gemvI12block_iq4_nlLx4ELx4EEEviPfmPKvS6_ii, symObjAddr: 0x137C, symBinAddr: 0xAC1B4, symSize: 0x378 }
  - { offset: 0x26173A, size: 0x8, addend: 0x0, symName: __ZN4ggml3cpu7aarch644gemmI10block_q4_0Lx4ELx4EEEviPfmPKvS6_ii, symObjAddr: 0x16F4, symBinAddr: 0xAC52C, symSize: 0xD80 }
  - { offset: 0x26194A, size: 0x8, addend: 0x0, symName: __ZN4ggml3cpu7aarch644gemmI10block_q4_0Lx8ELx4EEEviPfmPKvS6_ii, symObjAddr: 0x2474, symBinAddr: 0xAD2AC, symSize: 0x590 }
  - { offset: 0x261B11, size: 0x8, addend: 0x0, symName: __ZN4ggml3cpu7aarch644gemmI10block_q4_0Lx8ELx8EEEviPfmPKvS6_ii, symObjAddr: 0x2A04, symBinAddr: 0xAD83C, symSize: 0x638 }
  - { offset: 0x261CEE, size: 0x8, addend: 0x0, symName: __ZN4ggml3cpu7aarch644gemmI12block_iq4_nlLx4ELx4EEEviPfmPKvS6_ii, symObjAddr: 0x303C, symBinAddr: 0xADE74, symSize: 0x664 }
  - { offset: 0x262246, size: 0x8, addend: 0x0, symName: __Z36ggml_backend_cpu_aarch64_buffer_typev, symObjAddr: 0x36B0, symBinAddr: 0xAE4E8, symSize: 0xD4 }
  - { offset: 0x262272, size: 0x8, addend: 0x0, symName: __MergedGlobals.35, symObjAddr: 0x33EE0, symBinAddr: 0x190680, symSize: 0x0 }
  - { offset: 0x2622EB, size: 0x8, addend: 0x0, symName: __ZL13kvalues_iq4nl, symObjAddr: 0x794E, symBinAddr: 0x10839E, symSize: 0x0 }
  - { offset: 0x26255C, size: 0x8, addend: 0x0, symName: __ZN4ggml3cpu7aarch6413tensor_traitsI10block_q4_0Lx4ELx4EE18forward_mul_mat_idEP19ggml_compute_paramsP11ggml_tensor, symObjAddr: 0x461C, symBinAddr: 0xAF454, symSize: 0x620 }
  - { offset: 0x262B94, size: 0x8, addend: 0x0, symName: __ZL17quantize_mat_q8_0PKfPvxxx, symObjAddr: 0x4C3C, symBinAddr: 0xAFA74, symSize: 0x9A8 }
  - { offset: 0x262BB3, size: 0x8, addend: 0x0, symName: __ZN4ggml3cpu7aarch6413tensor_traitsI10block_q4_0Lx8ELx4EE18forward_mul_mat_idEP19ggml_compute_paramsP11ggml_tensor, symObjAddr: 0x5A7C, symBinAddr: 0xB08B4, symSize: 0x620 }
  - { offset: 0x2631EB, size: 0x8, addend: 0x0, symName: __ZN4ggml3cpu7aarch6413tensor_traitsI10block_q4_0Lx8ELx8EE15forward_mul_matEP19ggml_compute_paramsP11ggml_tensor, symObjAddr: 0x609C, symBinAddr: 0xB0ED4, symSize: 0x498 }
  - { offset: 0x263205, size: 0x8, addend: 0x0, symName: __ZN4ggml3cpu7aarch6413tensor_traitsI10block_q4_0Lx8ELx8EE18forward_mul_mat_idEP19ggml_compute_paramsP11ggml_tensor, symObjAddr: 0x6534, symBinAddr: 0xB136C, symSize: 0x620 }
  - { offset: 0x26383D, size: 0x8, addend: 0x0, symName: __ZN4ggml3cpu7aarch6413tensor_traitsI12block_iq4_nlLx4ELx4EE15forward_mul_matEP19ggml_compute_paramsP11ggml_tensor, symObjAddr: 0x6B54, symBinAddr: 0xB198C, symSize: 0x498 }
  - { offset: 0x263857, size: 0x8, addend: 0x0, symName: __ZN4ggml3cpu7aarch6413tensor_traitsI12block_iq4_nlLx4ELx4EE18forward_mul_mat_idEP19ggml_compute_paramsP11ggml_tensor, symObjAddr: 0x6FEC, symBinAddr: 0xB1E24, symSize: 0x620 }
  - { offset: 0x263EA3, size: 0x8, addend: 0x0, symName: __ZL24repack_q4_0_to_q4_0_4_blP11ggml_tensoriPKvm, symObjAddr: 0x10, symBinAddr: 0xAAE48, symSize: 0x3E4 }
  - { offset: 0x2640F6, size: 0x8, addend: 0x0, symName: __ZN4ggml3cpu7aarch646repackI10block_q4_0Lx8ELx4EEEiP11ggml_tensorPKvm, symObjAddr: 0x3F4, symBinAddr: 0xAB22C, symSize: 0x10 }
  - { offset: 0x26516E, size: 0x8, addend: 0x0, symName: __ZN4ggml3cpu7aarch6413tensor_traitsI10block_q4_0Lx4ELx4EED1Ev, symObjAddr: 0x36A0, symBinAddr: 0xAE4D8, symSize: 0x4 }
  - { offset: 0x265192, size: 0x8, addend: 0x0, symName: __ZN4ggml3cpu7aarch6413tensor_traitsI10block_q4_0Lx4ELx4EED1Ev, symObjAddr: 0x36A0, symBinAddr: 0xAE4D8, symSize: 0x4 }
  - { offset: 0x2651B0, size: 0x8, addend: 0x0, symName: __ZN4ggml3cpu7aarch6413tensor_traitsI10block_q4_0Lx4ELx4EED1Ev, symObjAddr: 0x36A0, symBinAddr: 0xAE4D8, symSize: 0x4 }
  - { offset: 0x2651F0, size: 0x8, addend: 0x0, symName: __ZN4ggml3cpu7aarch6413tensor_traitsI10block_q4_0Lx8ELx4EED1Ev, symObjAddr: 0x36A4, symBinAddr: 0xAE4DC, symSize: 0x4 }
  - { offset: 0x265214, size: 0x8, addend: 0x0, symName: __ZN4ggml3cpu7aarch6413tensor_traitsI10block_q4_0Lx8ELx4EED1Ev, symObjAddr: 0x36A4, symBinAddr: 0xAE4DC, symSize: 0x4 }
  - { offset: 0x265232, size: 0x8, addend: 0x0, symName: __ZN4ggml3cpu7aarch6413tensor_traitsI10block_q4_0Lx8ELx4EED1Ev, symObjAddr: 0x36A4, symBinAddr: 0xAE4DC, symSize: 0x4 }
  - { offset: 0x265272, size: 0x8, addend: 0x0, symName: __ZN4ggml3cpu7aarch6413tensor_traitsI10block_q4_0Lx8ELx8EED1Ev, symObjAddr: 0x36A8, symBinAddr: 0xAE4E0, symSize: 0x4 }
  - { offset: 0x265296, size: 0x8, addend: 0x0, symName: __ZN4ggml3cpu7aarch6413tensor_traitsI10block_q4_0Lx8ELx8EED1Ev, symObjAddr: 0x36A8, symBinAddr: 0xAE4E0, symSize: 0x4 }
  - { offset: 0x2652B4, size: 0x8, addend: 0x0, symName: __ZN4ggml3cpu7aarch6413tensor_traitsI10block_q4_0Lx8ELx8EED1Ev, symObjAddr: 0x36A8, symBinAddr: 0xAE4E0, symSize: 0x4 }
  - { offset: 0x2652F4, size: 0x8, addend: 0x0, symName: __ZN4ggml3cpu7aarch6413tensor_traitsI12block_iq4_nlLx4ELx4EED1Ev, symObjAddr: 0x36AC, symBinAddr: 0xAE4E4, symSize: 0x4 }
  - { offset: 0x265318, size: 0x8, addend: 0x0, symName: __ZN4ggml3cpu7aarch6413tensor_traitsI12block_iq4_nlLx4ELx4EED1Ev, symObjAddr: 0x36AC, symBinAddr: 0xAE4E4, symSize: 0x4 }
  - { offset: 0x265336, size: 0x8, addend: 0x0, symName: __ZN4ggml3cpu7aarch6413tensor_traitsI12block_iq4_nlLx4ELx4EED1Ev, symObjAddr: 0x36AC, symBinAddr: 0xAE4E4, symSize: 0x4 }
  - { offset: 0x2653C2, size: 0x8, addend: 0x0, symName: __ZL45ggml_backend_cpu_aarch64_buffer_type_get_nameP24ggml_backend_buffer_type, symObjAddr: 0x3784, symBinAddr: 0xAE5BC, symSize: 0xC }
  - { offset: 0x2653EE, size: 0x8, addend: 0x0, symName: __ZL49ggml_backend_cpu_aarch64_buffer_type_alloc_bufferP24ggml_backend_buffer_typem, symObjAddr: 0x3790, symBinAddr: 0xAE5C8, symSize: 0x50 }
  - { offset: 0x265489, size: 0x8, addend: 0x0, symName: __ZL50ggml_backend_cpu_aarch64_buffer_type_get_alignmentP24ggml_backend_buffer_type, symObjAddr: 0x37E0, symBinAddr: 0xAE618, symSize: 0x8 }
  - { offset: 0x2654D2, size: 0x8, addend: 0x0, symName: __ZN4ggml3cpu7aarch6413tensor_traitsI10block_q4_0Lx4ELx4EED0Ev, symObjAddr: 0x37E8, symBinAddr: 0xAE620, symSize: 0x14 }
  - { offset: 0x26555B, size: 0x8, addend: 0x0, symName: __ZN4ggml3cpu7aarch6413tensor_traitsI10block_q4_0Lx4ELx4EE9work_sizeEiPK11ggml_tensorRm, symObjAddr: 0x37FC, symBinAddr: 0xAE634, symSize: 0xA8 }
  - { offset: 0x265622, size: 0x8, addend: 0x0, symName: __ZN4ggml3cpu7aarch6413tensor_traitsI10block_q4_0Lx4ELx4EE15compute_forwardEP19ggml_compute_paramsP11ggml_tensor, symObjAddr: 0x38A4, symBinAddr: 0xAE6DC, symSize: 0x48 }
  - { offset: 0x265687, size: 0x8, addend: 0x0, symName: __ZN4ggml3cpu7aarch6413tensor_traitsI10block_q4_0Lx4ELx4EE15forward_mul_matEP19ggml_compute_paramsP11ggml_tensor, symObjAddr: 0x4184, symBinAddr: 0xAEFBC, symSize: 0x498 }
  - { offset: 0x265B30, size: 0x8, addend: 0x0, symName: __ZN4ggml3cpu7aarch6413tensor_traitsI10block_q4_0Lx4ELx4EE18forward_mul_mat_idEP19ggml_compute_paramsP11ggml_tensor, symObjAddr: 0x461C, symBinAddr: 0xAF454, symSize: 0x620 }
  - { offset: 0x265B44, size: 0x8, addend: 0x0, symName: __ZN4ggml3cpu7aarch6413tensor_traitsI10block_q4_0Lx4ELx4EE6repackEP11ggml_tensorPKvm, symObjAddr: 0x38EC, symBinAddr: 0xAE724, symSize: 0x78 }
  - { offset: 0x265C4E, size: 0x8, addend: 0x0, symName: __ZN4ggml3cpu7aarch6413tensor_traitsI10block_q4_0Lx8ELx4EED0Ev, symObjAddr: 0x3964, symBinAddr: 0xAE79C, symSize: 0x14 }
  - { offset: 0x265CD7, size: 0x8, addend: 0x0, symName: __ZN4ggml3cpu7aarch6413tensor_traitsI10block_q4_0Lx8ELx4EE9work_sizeEiPK11ggml_tensorRm, symObjAddr: 0x3978, symBinAddr: 0xAE7B0, symSize: 0xA8 }
  - { offset: 0x265D73, size: 0x8, addend: 0x0, symName: __ZN4ggml3cpu7aarch6413tensor_traitsI10block_q4_0Lx8ELx4EE15compute_forwardEP19ggml_compute_paramsP11ggml_tensor, symObjAddr: 0x3A20, symBinAddr: 0xAE858, symSize: 0x48 }
  - { offset: 0x265DD8, size: 0x8, addend: 0x0, symName: __ZN4ggml3cpu7aarch6413tensor_traitsI10block_q4_0Lx8ELx4EE15forward_mul_matEP19ggml_compute_paramsP11ggml_tensor, symObjAddr: 0x55E4, symBinAddr: 0xB041C, symSize: 0x498 }
  - { offset: 0x266281, size: 0x8, addend: 0x0, symName: __ZN4ggml3cpu7aarch6413tensor_traitsI10block_q4_0Lx8ELx4EE18forward_mul_mat_idEP19ggml_compute_paramsP11ggml_tensor, symObjAddr: 0x5A7C, symBinAddr: 0xB08B4, symSize: 0x620 }
  - { offset: 0x266295, size: 0x8, addend: 0x0, symName: __ZN4ggml3cpu7aarch6413tensor_traitsI10block_q4_0Lx8ELx4EE6repackEP11ggml_tensorPKvm, symObjAddr: 0x3A68, symBinAddr: 0xAE8A0, symSize: 0x7C }
  - { offset: 0x266379, size: 0x8, addend: 0x0, symName: __ZN4ggml3cpu7aarch6413tensor_traitsI10block_q4_0Lx8ELx8EED0Ev, symObjAddr: 0x3AE4, symBinAddr: 0xAE91C, symSize: 0x14 }
  - { offset: 0x266402, size: 0x8, addend: 0x0, symName: __ZN4ggml3cpu7aarch6413tensor_traitsI10block_q4_0Lx8ELx8EE9work_sizeEiPK11ggml_tensorRm, symObjAddr: 0x3AF8, symBinAddr: 0xAE930, symSize: 0xA8 }
  - { offset: 0x26649E, size: 0x8, addend: 0x0, symName: __ZN4ggml3cpu7aarch6413tensor_traitsI10block_q4_0Lx8ELx8EE15compute_forwardEP19ggml_compute_paramsP11ggml_tensor, symObjAddr: 0x3BA0, symBinAddr: 0xAE9D8, symSize: 0x48 }
  - { offset: 0x266503, size: 0x8, addend: 0x0, symName: __ZN4ggml3cpu7aarch6413tensor_traitsI10block_q4_0Lx8ELx8EE15forward_mul_matEP19ggml_compute_paramsP11ggml_tensor, symObjAddr: 0x609C, symBinAddr: 0xB0ED4, symSize: 0x498 }
  - { offset: 0x2669AC, size: 0x8, addend: 0x0, symName: __ZN4ggml3cpu7aarch6413tensor_traitsI10block_q4_0Lx8ELx8EE18forward_mul_mat_idEP19ggml_compute_paramsP11ggml_tensor, symObjAddr: 0x6534, symBinAddr: 0xB136C, symSize: 0x620 }
  - { offset: 0x2669C0, size: 0x8, addend: 0x0, symName: __ZN4ggml3cpu7aarch6413tensor_traitsI10block_q4_0Lx8ELx8EE6repackEP11ggml_tensorPKvm, symObjAddr: 0x3BE8, symBinAddr: 0xAEA20, symSize: 0x74 }
  - { offset: 0x266A68, size: 0x8, addend: 0x0, symName: __ZN4ggml3cpu7aarch6413tensor_traitsI12block_iq4_nlLx4ELx4EED0Ev, symObjAddr: 0x3C5C, symBinAddr: 0xAEA94, symSize: 0x14 }
  - { offset: 0x266AF1, size: 0x8, addend: 0x0, symName: __ZN4ggml3cpu7aarch6413tensor_traitsI12block_iq4_nlLx4ELx4EE9work_sizeEiPK11ggml_tensorRm, symObjAddr: 0x3C70, symBinAddr: 0xAEAA8, symSize: 0xA8 }
  - { offset: 0x266B8D, size: 0x8, addend: 0x0, symName: __ZN4ggml3cpu7aarch6413tensor_traitsI12block_iq4_nlLx4ELx4EE15compute_forwardEP19ggml_compute_paramsP11ggml_tensor, symObjAddr: 0x3D18, symBinAddr: 0xAEB50, symSize: 0x48 }
  - { offset: 0x266BF2, size: 0x8, addend: 0x0, symName: __ZN4ggml3cpu7aarch6413tensor_traitsI12block_iq4_nlLx4ELx4EE15forward_mul_matEP19ggml_compute_paramsP11ggml_tensor, symObjAddr: 0x6B54, symBinAddr: 0xB198C, symSize: 0x498 }
  - { offset: 0x26709B, size: 0x8, addend: 0x0, symName: __ZN4ggml3cpu7aarch6413tensor_traitsI12block_iq4_nlLx4ELx4EE18forward_mul_mat_idEP19ggml_compute_paramsP11ggml_tensor, symObjAddr: 0x6FEC, symBinAddr: 0xB1E24, symSize: 0x620 }
  - { offset: 0x2670AF, size: 0x8, addend: 0x0, symName: __ZN4ggml3cpu7aarch6413tensor_traitsI12block_iq4_nlLx4ELx4EE6repackEP11ggml_tensorPKvm, symObjAddr: 0x3D60, symBinAddr: 0xAEB98, symSize: 0x74 }
  - { offset: 0x26713A, size: 0x8, addend: 0x0, symName: __ZL43ggml_backend_cpu_aarch64_buffer_init_tensorP19ggml_backend_bufferP11ggml_tensor, symObjAddr: 0x3DD4, symBinAddr: 0xAEC0C, symSize: 0x2C }
  - { offset: 0x26718E, size: 0x8, addend: 0x0, symName: __ZL36ggml_aarch64_get_optimal_repack_typePK11ggml_tensor, symObjAddr: 0x3ED4, symBinAddr: 0xAED0C, symSize: 0x108 }
  - { offset: 0x26724B, size: 0x8, addend: 0x0, symName: __ZL42ggml_backend_cpu_aarch64_buffer_set_tensorP19ggml_backend_bufferP11ggml_tensorPKvmm, symObjAddr: 0x3E00, symBinAddr: 0xAEC38, symSize: 0xD4 }
  - { offset: 0x26733A, size: 0x8, addend: 0x0, symName: __ZL36ggml_aarch64_get_optimal_repack_typePK11ggml_tensor, symObjAddr: 0x3ED4, symBinAddr: 0xAED0C, symSize: 0x108 }
  - { offset: 0x2673AE, size: 0x8, addend: 0x0, symName: __ZN4ggml3cpu7aarch6417extra_buffer_typeD1Ev, symObjAddr: 0x3FDC, symBinAddr: 0xAEE14, symSize: 0x4 }
  - { offset: 0x2673D2, size: 0x8, addend: 0x0, symName: __ZN4ggml3cpu7aarch6417extra_buffer_typeD1Ev, symObjAddr: 0x3FDC, symBinAddr: 0xAEE14, symSize: 0x4 }
  - { offset: 0x26740B, size: 0x8, addend: 0x0, symName: __ZN4ggml3cpu7aarch6417extra_buffer_typeD0Ev, symObjAddr: 0x3FE0, symBinAddr: 0xAEE18, symSize: 0x14 }
  - { offset: 0x267475, size: 0x8, addend: 0x0, symName: __ZN4ggml3cpu7aarch6417extra_buffer_type11supports_opEP19ggml_backend_devicePK11ggml_tensor, symObjAddr: 0x3FF4, symBinAddr: 0xAEE2C, symSize: 0x128 }
  - { offset: 0x26754F, size: 0x8, addend: 0x0, symName: __ZN4ggml3cpu7aarch6417extra_buffer_type17get_tensor_traitsEPK11ggml_tensor, symObjAddr: 0x411C, symBinAddr: 0xAEF54, symSize: 0x68 }
  - { offset: 0x267663, size: 0x8, addend: 0x0, symName: __ZL17quantize_mat_q8_0PKfPvxxx, symObjAddr: 0x4C3C, symBinAddr: 0xAFA74, symSize: 0x9A8 }
  - { offset: 0x26ADF0, size: 0x8, addend: 0x0, symName: _quantize_row_q4_0, symObjAddr: 0x0, symBinAddr: 0xB24B8, symSize: 0x4 }
  - { offset: 0x26ADFE, size: 0x8, addend: 0x0, symName: _ggml_vec_dot_q4_K_q8_K, symObjAddr: 0x1A78, symBinAddr: 0xB3F30, symSize: 0x1D0 }
  - { offset: 0x26B2FD, size: 0x8, addend: 0x0, symName: _ggml_vec_dot_q5_K_q8_K, symObjAddr: 0x1C48, symBinAddr: 0xB4100, symSize: 0x1F4 }
  - { offset: 0x26B88E, size: 0x8, addend: 0x0, symName: _ggml_vec_dot_iq2_s_q8_K, symObjAddr: 0x248C, symBinAddr: 0xB4944, symSize: 0x248 }
  - { offset: 0x26B8B2, size: 0x8, addend: 0x0, symName: _ggml_vec_dot_iq2_s_q8_K.k_mask1, symObjAddr: 0x6558, symBinAddr: 0x10B108, symSize: 0x0 }
  - { offset: 0x26BCF2, size: 0x8, addend: 0x0, symName: _ggml_vec_dot_iq3_s_q8_K, symObjAddr: 0x2900, symBinAddr: 0xB4DB8, symSize: 0x31C }
  - { offset: 0x26BD16, size: 0x8, addend: 0x0, symName: _ggml_vec_dot_iq3_s_q8_K.k_mask1, symObjAddr: 0x8978, symBinAddr: 0x10D528, symSize: 0x0 }
  - { offset: 0x26C173, size: 0x8, addend: 0x0, symName: _table_b2b_1, symObjAddr: 0x3958, symBinAddr: 0x108508, symSize: 0x0 }
  - { offset: 0x26C1B2, size: 0x8, addend: 0x0, symName: _table_b2b_0, symObjAddr: 0x4158, symBinAddr: 0x108D08, symSize: 0x0 }
  - { offset: 0x26C1C9, size: 0x8, addend: 0x0, symName: _keven_signs_q2xs, symObjAddr: 0x4958, symBinAddr: 0x109508, symSize: 0x0 }
  - { offset: 0x26C208, size: 0x8, addend: 0x0, symName: _iq2xxs_grid, symObjAddr: 0x4D58, symBinAddr: 0x109908, symSize: 0x0 }
  - { offset: 0x26C21F, size: 0x8, addend: 0x0, symName: _iq2xs_grid, symObjAddr: 0x5558, symBinAddr: 0x10A108, symSize: 0x0 }
  - { offset: 0x26C245, size: 0x8, addend: 0x0, symName: _iq2s_grid, symObjAddr: 0x6578, symBinAddr: 0x10B128, symSize: 0x0 }
  - { offset: 0x26C26B, size: 0x8, addend: 0x0, symName: _iq3xxs_grid, symObjAddr: 0x8578, symBinAddr: 0x10D128, symSize: 0x0 }
  - { offset: 0x26C291, size: 0x8, addend: 0x0, symName: _iq3s_grid, symObjAddr: 0x8998, symBinAddr: 0x10D548, symSize: 0x0 }
  - { offset: 0x26C2B7, size: 0x8, addend: 0x0, symName: _iq1s_grid, symObjAddr: 0x9198, symBinAddr: 0x10DD48, symSize: 0x0 }
  - { offset: 0x26C2DD, size: 0x8, addend: 0x0, symName: _kvalues_iq4nl, symObjAddr: 0xD198, symBinAddr: 0x111D48, symSize: 0x0 }
  - { offset: 0x26C46E, size: 0x8, addend: 0x0, symName: _quantize_row_q4_0, symObjAddr: 0x0, symBinAddr: 0xB24B8, symSize: 0x4 }
  - { offset: 0x26C4B6, size: 0x8, addend: 0x0, symName: _quantize_row_q4_0, symObjAddr: 0x0, symBinAddr: 0xB24B8, symSize: 0x4 }
  - { offset: 0x26C56C, size: 0x8, addend: 0x0, symName: _quantize_row_q4_1, symObjAddr: 0x4, symBinAddr: 0xB24BC, symSize: 0x4 }
  - { offset: 0x26C5B4, size: 0x8, addend: 0x0, symName: _quantize_row_q4_1, symObjAddr: 0x4, symBinAddr: 0xB24BC, symSize: 0x4 }
  - { offset: 0x26C66F, size: 0x8, addend: 0x0, symName: _quantize_row_q5_0, symObjAddr: 0x8, symBinAddr: 0xB24C0, symSize: 0x4 }
  - { offset: 0x26C6B7, size: 0x8, addend: 0x0, symName: _quantize_row_q5_0, symObjAddr: 0x8, symBinAddr: 0xB24C0, symSize: 0x4 }
  - { offset: 0x26C749, size: 0x8, addend: 0x0, symName: _quantize_row_q5_1, symObjAddr: 0xC, symBinAddr: 0xB24C4, symSize: 0x4 }
  - { offset: 0x26C791, size: 0x8, addend: 0x0, symName: _quantize_row_q5_1, symObjAddr: 0xC, symBinAddr: 0xB24C4, symSize: 0x4 }
  - { offset: 0x26C8A4, size: 0x8, addend: 0x0, symName: _quantize_row_q8_0, symObjAddr: 0x10, symBinAddr: 0xB24C8, symSize: 0x14C }
  - { offset: 0x26CA99, size: 0x8, addend: 0x0, symName: _quantize_row_q8_1, symObjAddr: 0x15C, symBinAddr: 0xB2614, symSize: 0x184 }
  - { offset: 0x26CCBF, size: 0x8, addend: 0x0, symName: _quantize_row_q2_K, symObjAddr: 0x2E0, symBinAddr: 0xB2798, symSize: 0x4 }
  - { offset: 0x26CD07, size: 0x8, addend: 0x0, symName: _quantize_row_q2_K, symObjAddr: 0x2E0, symBinAddr: 0xB2798, symSize: 0x4 }
  - { offset: 0x26CDD4, size: 0x8, addend: 0x0, symName: _quantize_row_q3_K, symObjAddr: 0x2E4, symBinAddr: 0xB279C, symSize: 0x4 }
  - { offset: 0x26CE1C, size: 0x8, addend: 0x0, symName: _quantize_row_q3_K, symObjAddr: 0x2E4, symBinAddr: 0xB279C, symSize: 0x4 }
  - { offset: 0x26CECF, size: 0x8, addend: 0x0, symName: _quantize_row_q4_K, symObjAddr: 0x2E8, symBinAddr: 0xB27A0, symSize: 0x4 }
  - { offset: 0x26CF26, size: 0x8, addend: 0x0, symName: _quantize_row_q4_K, symObjAddr: 0x2E8, symBinAddr: 0xB27A0, symSize: 0x4 }
  - { offset: 0x26CFFB, size: 0x8, addend: 0x0, symName: _quantize_row_q5_K, symObjAddr: 0x2EC, symBinAddr: 0xB27A4, symSize: 0x4 }
  - { offset: 0x26D052, size: 0x8, addend: 0x0, symName: _quantize_row_q5_K, symObjAddr: 0x2EC, symBinAddr: 0xB27A4, symSize: 0x4 }
  - { offset: 0x26D127, size: 0x8, addend: 0x0, symName: _quantize_row_q6_K, symObjAddr: 0x2F0, symBinAddr: 0xB27A8, symSize: 0x4 }
  - { offset: 0x26D17E, size: 0x8, addend: 0x0, symName: _quantize_row_q6_K, symObjAddr: 0x2F0, symBinAddr: 0xB27A8, symSize: 0x4 }
  - { offset: 0x26D223, size: 0x8, addend: 0x0, symName: _quantize_row_tq1_0, symObjAddr: 0x2F4, symBinAddr: 0xB27AC, symSize: 0x4 }
  - { offset: 0x26D27A, size: 0x8, addend: 0x0, symName: _quantize_row_tq1_0, symObjAddr: 0x2F4, symBinAddr: 0xB27AC, symSize: 0x4 }
  - { offset: 0x26D30C, size: 0x8, addend: 0x0, symName: _quantize_row_tq2_0, symObjAddr: 0x2F8, symBinAddr: 0xB27B0, symSize: 0x4 }
  - { offset: 0x26D363, size: 0x8, addend: 0x0, symName: _quantize_row_tq2_0, symObjAddr: 0x2F8, symBinAddr: 0xB27B0, symSize: 0x4 }
  - { offset: 0x26D3DA, size: 0x8, addend: 0x0, symName: _quantize_row_q8_K, symObjAddr: 0x2FC, symBinAddr: 0xB27B4, symSize: 0x4 }
  - { offset: 0x26D422, size: 0x8, addend: 0x0, symName: _quantize_row_q8_K, symObjAddr: 0x2FC, symBinAddr: 0xB27B4, symSize: 0x4 }
  - { offset: 0x26D549, size: 0x8, addend: 0x0, symName: _ggml_vec_dot_q4_0_q8_0, symObjAddr: 0x300, symBinAddr: 0xB27B8, symSize: 0x25C }
  - { offset: 0x26DAC1, size: 0x8, addend: 0x0, symName: _ggml_vec_dot_q4_1_q8_1, symObjAddr: 0x55C, symBinAddr: 0xB2A14, symSize: 0x278 }
  - { offset: 0x26E0FD, size: 0x8, addend: 0x0, symName: _ggml_vec_dot_q5_0_q8_0, symObjAddr: 0x7D4, symBinAddr: 0xB2C8C, symSize: 0x424 }
  - { offset: 0x26E712, size: 0x8, addend: 0x0, symName: _ggml_vec_dot_q5_1_q8_1, symObjAddr: 0xBF8, symBinAddr: 0xB30B0, symSize: 0x3A4 }
  - { offset: 0x26EE18, size: 0x8, addend: 0x0, symName: _ggml_vec_dot_q8_0_q8_0, symObjAddr: 0xF9C, symBinAddr: 0xB3454, symSize: 0x1B0 }
  - { offset: 0x26F2AA, size: 0x8, addend: 0x0, symName: _ggml_vec_dot_tq1_0_q8_K, symObjAddr: 0x114C, symBinAddr: 0xB3604, symSize: 0x254 }
  - { offset: 0x26FEE8, size: 0x8, addend: 0x0, symName: _ggml_vec_dot_tq2_0_q8_K, symObjAddr: 0x13A0, symBinAddr: 0xB3858, symSize: 0x128 }
  - { offset: 0x2703B8, size: 0x8, addend: 0x0, symName: _ggml_vec_dot_q2_K_q8_K, symObjAddr: 0x14C8, symBinAddr: 0xB3980, symSize: 0x24C }
  - { offset: 0x270A0C, size: 0x8, addend: 0x0, symName: _ggml_vec_dot_q3_K_q8_K, symObjAddr: 0x1714, symBinAddr: 0xB3BCC, symSize: 0x364 }
  - { offset: 0x27113B, size: 0x8, addend: 0x0, symName: _ggml_vec_dot_q6_K_q8_K, symObjAddr: 0x1E3C, symBinAddr: 0xB42F4, symSize: 0x260 }
  - { offset: 0x27179D, size: 0x8, addend: 0x0, symName: _ggml_vec_dot_iq2_xxs_q8_K, symObjAddr: 0x209C, symBinAddr: 0xB4554, symSize: 0x1D4 }
  - { offset: 0x271C33, size: 0x8, addend: 0x0, symName: _ggml_vec_dot_iq2_xs_q8_K, symObjAddr: 0x2270, symBinAddr: 0xB4728, symSize: 0x21C }
  - { offset: 0x2721FC, size: 0x8, addend: 0x0, symName: _ggml_vec_dot_iq3_xxs_q8_K, symObjAddr: 0x26D4, symBinAddr: 0xB4B8C, symSize: 0x22C }
  - { offset: 0x27262D, size: 0x8, addend: 0x0, symName: _ggml_vec_dot_iq1_s_q8_K, symObjAddr: 0x2C1C, symBinAddr: 0xB50D4, symSize: 0x218 }
  - { offset: 0x272A1D, size: 0x8, addend: 0x0, symName: _ggml_vec_dot_iq1_m_q8_K, symObjAddr: 0x2E34, symBinAddr: 0xB52EC, symSize: 0x2D4 }
  - { offset: 0x272F6A, size: 0x8, addend: 0x0, symName: _ggml_vec_dot_iq4_nl_q8_0, symObjAddr: 0x3108, symBinAddr: 0xB55C0, symSize: 0x3CC }
  - { offset: 0x2733AD, size: 0x8, addend: 0x0, symName: _ggml_vec_dot_iq4_xs_q8_K, symObjAddr: 0x34D4, symBinAddr: 0xB598C, symSize: 0x138 }
  - { offset: 0x27377A, size: 0x8, addend: 0x0, symName: _quantize_row_iq4_nl, symObjAddr: 0x360C, symBinAddr: 0xB5AC4, symSize: 0x4 }
  - { offset: 0x2737C2, size: 0x8, addend: 0x0, symName: _quantize_row_iq4_nl, symObjAddr: 0x360C, symBinAddr: 0xB5AC4, symSize: 0x4 }
  - { offset: 0x27383D, size: 0x8, addend: 0x0, symName: _quantize_row_iq4_xs, symObjAddr: 0x3610, symBinAddr: 0xB5AC8, symSize: 0x10 }
  - { offset: 0x273FCC, size: 0x8, addend: 0x0, symName: __ZN4ggml3cpu13tensor_traitsD2Ev, symObjAddr: 0x0, symBinAddr: 0xB5AD8, symSize: 0x4 }
  - { offset: 0x275E5E, size: 0x8, addend: 0x0, symName: __ZN4ggml3cpu13tensor_traitsD2Ev, symObjAddr: 0x0, symBinAddr: 0xB5AD8, symSize: 0x4 }
  - { offset: 0x275E89, size: 0x8, addend: 0x0, symName: __ZN4ggml3cpu13tensor_traitsD1Ev, symObjAddr: 0x4, symBinAddr: 0xB5ADC, symSize: 0x4 }
  - { offset: 0x275EB2, size: 0x8, addend: 0x0, symName: __ZN4ggml3cpu13tensor_traitsD0Ev, symObjAddr: 0x8, symBinAddr: 0xB5AE0, symSize: 0x4 }
  - { offset: 0x275EDB, size: 0x8, addend: 0x0, symName: __ZN4ggml3cpu17extra_buffer_typeD2Ev, symObjAddr: 0xC, symBinAddr: 0xB5AE4, symSize: 0x4 }
  - { offset: 0x275F06, size: 0x8, addend: 0x0, symName: __ZN4ggml3cpu17extra_buffer_typeD1Ev, symObjAddr: 0x10, symBinAddr: 0xB5AE8, symSize: 0x4 }
  - { offset: 0x275F2F, size: 0x8, addend: 0x0, symName: __ZN4ggml3cpu17extra_buffer_typeD0Ev, symObjAddr: 0x14, symBinAddr: 0xB5AEC, symSize: 0x4 }
  - { offset: 0x275F92, size: 0x8, addend: 0x0, symName: _ggml_cpu_extra_compute_forward, symObjAddr: 0x18, symBinAddr: 0xB5AF0, symSize: 0x94 }
  - { offset: 0x2760D3, size: 0x8, addend: 0x0, symName: _ggml_cpu_extra_work_size, symObjAddr: 0xAC, symBinAddr: 0xB5B84, symSize: 0xA8 }
  - { offset: 0x278113, size: 0x8, addend: 0x0, symName: _ggml_get_type_traits_cpu, symObjAddr: 0x0, symBinAddr: 0xB5C2C, symSize: 0x14 }
  - { offset: 0x27812D, size: 0x8, addend: 0x0, symName: _ggml_arm_arch_features, symObjAddr: 0x29EC8, symBinAddr: 0x12C8D8, symSize: 0x0 }
  - { offset: 0x2781A4, size: 0x8, addend: 0x0, symName: _ggml_cpu_init, symObjAddr: 0x248C, symBinAddr: 0xB80B8, symSize: 0x204 }
  - { offset: 0x2781C8, size: 0x8, addend: 0x0, symName: _ggml_cpu_init.is_first_call, symObjAddr: 0xD3790, symBinAddr: 0x1906C8, symSize: 0x0 }
  - { offset: 0x278496, size: 0x8, addend: 0x0, symName: _ggml_table_gelu_f16, symObjAddr: 0xD3792, symBinAddr: 0x1906CA, symSize: 0x0 }
  - { offset: 0x2784DD, size: 0x8, addend: 0x0, symName: _ggml_table_gelu_quick_f16, symObjAddr: 0xF3792, symBinAddr: 0x1B06CA, symSize: 0x0 }
  - { offset: 0x2784F3, size: 0x8, addend: 0x0, symName: _type_traits_cpu, symObjAddr: 0x29EE0, symBinAddr: 0x126310, symSize: 0x0 }
  - { offset: 0x279B28, size: 0x8, addend: 0x0, symName: _ggml_get_type_traits_cpu, symObjAddr: 0x0, symBinAddr: 0xB5C2C, symSize: 0x14 }
  - { offset: 0x279B51, size: 0x8, addend: 0x0, symName: _ggml_barrier, symObjAddr: 0x14, symBinAddr: 0xB5C40, symSize: 0x64 }
  - { offset: 0x279BA2, size: 0x8, addend: 0x0, symName: _ggml_numa_init, symObjAddr: 0x78, symBinAddr: 0xB5CA4, symSize: 0x4 }
  - { offset: 0x279BC9, size: 0x8, addend: 0x0, symName: _ggml_is_numa, symObjAddr: 0x7C, symBinAddr: 0xB5CA8, symSize: 0x8 }
  - { offset: 0x279BE4, size: 0x8, addend: 0x0, symName: _ggml_new_i32, symObjAddr: 0x84, symBinAddr: 0xB5CB0, symSize: 0x68 }
  - { offset: 0x279C7D, size: 0x8, addend: 0x0, symName: _ggml_set_i32, symObjAddr: 0xEC, symBinAddr: 0xB5D18, symSize: 0x4DC }
  - { offset: 0x279CD0, size: 0x8, addend: 0x0, symName: _ggml_set_i32, symObjAddr: 0xEC, symBinAddr: 0xB5D18, symSize: 0x4DC }
  - { offset: 0x279F6A, size: 0x8, addend: 0x0, symName: _ggml_new_f32, symObjAddr: 0x5C8, symBinAddr: 0xB61F4, symSize: 0x70 }
  - { offset: 0x27A1A0, size: 0x8, addend: 0x0, symName: _ggml_new_f32, symObjAddr: 0x5C8, symBinAddr: 0xB61F4, symSize: 0x70 }
  - { offset: 0x27A239, size: 0x8, addend: 0x0, symName: _ggml_set_f32, symObjAddr: 0x638, symBinAddr: 0xB6264, symSize: 0x4FC }
  - { offset: 0x27A24D, size: 0x8, addend: 0x0, symName: _ggml_set_f32, symObjAddr: 0x638, symBinAddr: 0xB6264, symSize: 0x4FC }
  - { offset: 0x27A4E7, size: 0x8, addend: 0x0, symName: _ggml_get_i32_1d, symObjAddr: 0xB34, symBinAddr: 0xB6760, symSize: 0x250 }
  - { offset: 0x27A547, size: 0x8, addend: 0x0, symName: _ggml_get_i32_1d, symObjAddr: 0xB34, symBinAddr: 0xB6760, symSize: 0x250 }
  - { offset: 0x27A6B4, size: 0x8, addend: 0x0, symName: _ggml_get_i32_nd, symObjAddr: 0xD84, symBinAddr: 0xB69B0, symSize: 0xD0 }
  - { offset: 0x27A70A, size: 0x8, addend: 0x0, symName: _ggml_get_i32_nd, symObjAddr: 0xD84, symBinAddr: 0xB69B0, symSize: 0xD0 }
  - { offset: 0x27A7AC, size: 0x8, addend: 0x0, symName: _ggml_set_i32_1d, symObjAddr: 0xE54, symBinAddr: 0xB6A80, symSize: 0x29C }
  - { offset: 0x27A803, size: 0x8, addend: 0x0, symName: _ggml_set_i32_1d, symObjAddr: 0xE54, symBinAddr: 0xB6A80, symSize: 0x29C }
  - { offset: 0x27A9A8, size: 0x8, addend: 0x0, symName: _ggml_set_i32_nd, symObjAddr: 0x10F0, symBinAddr: 0xB6D1C, symSize: 0x108 }
  - { offset: 0x27A9BC, size: 0x8, addend: 0x0, symName: _ggml_set_i32_nd, symObjAddr: 0x10F0, symBinAddr: 0xB6D1C, symSize: 0x108 }
  - { offset: 0x27AA8D, size: 0x8, addend: 0x0, symName: _ggml_get_f32_1d, symObjAddr: 0x11F8, symBinAddr: 0xB6E24, symSize: 0x140 }
  - { offset: 0x27AACA, size: 0x8, addend: 0x0, symName: _ggml_get_f32_1d, symObjAddr: 0x11F8, symBinAddr: 0xB6E24, symSize: 0x140 }
  - { offset: 0x27ABCA, size: 0x8, addend: 0x0, symName: _ggml_get_f32_nd, symObjAddr: 0x1338, symBinAddr: 0xB6F64, symSize: 0xDC }
  - { offset: 0x27ABDE, size: 0x8, addend: 0x0, symName: _ggml_get_f32_nd, symObjAddr: 0x1338, symBinAddr: 0xB6F64, symSize: 0xDC }
  - { offset: 0x27ACA0, size: 0x8, addend: 0x0, symName: _ggml_set_f32_1d, symObjAddr: 0x1414, symBinAddr: 0xB7040, symSize: 0x180 }
  - { offset: 0x27ACB4, size: 0x8, addend: 0x0, symName: _ggml_set_f32_1d, symObjAddr: 0x1414, symBinAddr: 0xB7040, symSize: 0x180 }
  - { offset: 0x27ADBC, size: 0x8, addend: 0x0, symName: _ggml_set_f32_nd, symObjAddr: 0x1594, symBinAddr: 0xB71C0, symSize: 0x108 }
  - { offset: 0x27ADD0, size: 0x8, addend: 0x0, symName: _ggml_set_f32_nd, symObjAddr: 0x1594, symBinAddr: 0xB71C0, symSize: 0x108 }
  - { offset: 0x27AEA1, size: 0x8, addend: 0x0, symName: _ggml_threadpool_free, symObjAddr: 0x169C, symBinAddr: 0xB72C8, symSize: 0x104 }
  - { offset: 0x27AEB5, size: 0x8, addend: 0x0, symName: _ggml_threadpool_free, symObjAddr: 0x169C, symBinAddr: 0xB72C8, symSize: 0x104 }
  - { offset: 0x27AFE4, size: 0x8, addend: 0x0, symName: _ggml_threadpool_pause, symObjAddr: 0x17A0, symBinAddr: 0xB73CC, symSize: 0x40 }
  - { offset: 0x27B0BA, size: 0x8, addend: 0x0, symName: _ggml_threadpool_pause, symObjAddr: 0x17A0, symBinAddr: 0xB73CC, symSize: 0x40 }
  - { offset: 0x27B156, size: 0x8, addend: 0x0, symName: _ggml_threadpool_resume, symObjAddr: 0x17E0, symBinAddr: 0xB740C, symSize: 0x3C }
  - { offset: 0x27B381, size: 0x8, addend: 0x0, symName: _ggml_graph_plan, symObjAddr: 0x181C, symBinAddr: 0xB7448, symSize: 0x604 }
  - { offset: 0x27B86E, size: 0x8, addend: 0x0, symName: _ggml_threadpool_new, symObjAddr: 0x1E20, symBinAddr: 0xB7A4C, symSize: 0xC }
  - { offset: 0x27BB5E, size: 0x8, addend: 0x0, symName: _ggml_threadpool_new, symObjAddr: 0x1E20, symBinAddr: 0xB7A4C, symSize: 0xC }
  - { offset: 0x27BBAC, size: 0x8, addend: 0x0, symName: _ggml_threadpool_new_impl, symObjAddr: 0x1E2C, symBinAddr: 0xB7A58, symSize: 0x3F4 }
  - { offset: 0x27BEAE, size: 0x8, addend: 0x0, symName: _ggml_graph_compute, symObjAddr: 0x2220, symBinAddr: 0xB7E4C, symSize: 0x26C }
  - { offset: 0x27C1A6, size: 0x8, addend: 0x0, symName: _ggml_graph_compute, symObjAddr: 0x2220, symBinAddr: 0xB7E4C, symSize: 0x26C }
  - { offset: 0x27C435, size: 0x8, addend: 0x0, symName: _ggml_cpu_init, symObjAddr: 0x248C, symBinAddr: 0xB80B8, symSize: 0x204 }
  - { offset: 0x27C4D8, size: 0x8, addend: 0x0, symName: _ggml_graph_compute_thread, symObjAddr: 0x2690, symBinAddr: 0xB82BC, symSize: 0x209A4 }
  - { offset: 0x29CCB1, size: 0x8, addend: 0x0, symName: _ggml_compute_forward_dup, symObjAddr: 0x23B74, symBinAddr: 0xD97A0, symSize: 0x4074 }
  - { offset: 0x29E7BA, size: 0x8, addend: 0x0, symName: _ggml_compute_forward_diag_mask_f32, symObjAddr: 0x27BE8, symBinAddr: 0xDD814, symSize: 0x294 }
  - { offset: 0x29E929, size: 0x8, addend: 0x0, symName: _ggml_compute_forward_rope_f16, symObjAddr: 0x27E7C, symBinAddr: 0xDDAA8, symSize: 0x120C }
  - { offset: 0x29F5A1, size: 0x8, addend: 0x0, symName: _ggml_compute_forward_rope_f32, symObjAddr: 0x29088, symBinAddr: 0xDECB4, symSize: 0xB30 }
  - { offset: 0x29F693, size: 0x8, addend: 0x0, symName: _ggml_compute_forward_diag_mask_f32, symObjAddr: 0x27BE8, symBinAddr: 0xDD814, symSize: 0x294 }
  - { offset: 0x29F8E5, size: 0x8, addend: 0x0, symName: _ggml_compute_forward_rope_f16, symObjAddr: 0x27E7C, symBinAddr: 0xDDAA8, symSize: 0x120C }
  - { offset: 0x29F90D, size: 0x8, addend: 0x0, symName: _ggml_compute_forward_rope_f32, symObjAddr: 0x29088, symBinAddr: 0xDECB4, symSize: 0xB30 }
  - { offset: 0x2A0485, size: 0x8, addend: 0x0, symName: _ggml_graph_compute_with_ctx, symObjAddr: 0x23368, symBinAddr: 0xD8F94, symSize: 0x58 }
  - { offset: 0x2A055D, size: 0x8, addend: 0x0, symName: _ggml_cpu_has_avx, symObjAddr: 0x233C0, symBinAddr: 0xD8FEC, symSize: 0x8 }
  - { offset: 0x2A0578, size: 0x8, addend: 0x0, symName: _ggml_cpu_has_avx_vnni, symObjAddr: 0x233C8, symBinAddr: 0xD8FF4, symSize: 0x8 }
  - { offset: 0x2A0593, size: 0x8, addend: 0x0, symName: _ggml_cpu_has_avx2, symObjAddr: 0x233D0, symBinAddr: 0xD8FFC, symSize: 0x8 }
  - { offset: 0x2A05AE, size: 0x8, addend: 0x0, symName: _ggml_cpu_has_avx512, symObjAddr: 0x233D8, symBinAddr: 0xD9004, symSize: 0x8 }
  - { offset: 0x2A05C9, size: 0x8, addend: 0x0, symName: _ggml_cpu_has_avx512_vbmi, symObjAddr: 0x233E0, symBinAddr: 0xD900C, symSize: 0x8 }
  - { offset: 0x2A05E4, size: 0x8, addend: 0x0, symName: _ggml_cpu_has_avx512_vnni, symObjAddr: 0x233E8, symBinAddr: 0xD9014, symSize: 0x8 }
  - { offset: 0x2A05FF, size: 0x8, addend: 0x0, symName: _ggml_cpu_has_avx512_bf16, symObjAddr: 0x233F0, symBinAddr: 0xD901C, symSize: 0x8 }
  - { offset: 0x2A061A, size: 0x8, addend: 0x0, symName: _ggml_cpu_has_amx_int8, symObjAddr: 0x233F8, symBinAddr: 0xD9024, symSize: 0x8 }
  - { offset: 0x2A0635, size: 0x8, addend: 0x0, symName: _ggml_cpu_has_bmi2, symObjAddr: 0x23400, symBinAddr: 0xD902C, symSize: 0x8 }
  - { offset: 0x2A0650, size: 0x8, addend: 0x0, symName: _ggml_cpu_has_fma, symObjAddr: 0x23408, symBinAddr: 0xD9034, symSize: 0x8 }
  - { offset: 0x2A066B, size: 0x8, addend: 0x0, symName: _ggml_cpu_has_arm_fma, symObjAddr: 0x23410, symBinAddr: 0xD903C, symSize: 0x8 }
  - { offset: 0x2A0686, size: 0x8, addend: 0x0, symName: _ggml_cpu_has_riscv_v, symObjAddr: 0x23418, symBinAddr: 0xD9044, symSize: 0x8 }
  - { offset: 0x2A06A1, size: 0x8, addend: 0x0, symName: _ggml_cpu_has_f16c, symObjAddr: 0x23420, symBinAddr: 0xD904C, symSize: 0x8 }
  - { offset: 0x2A06BC, size: 0x8, addend: 0x0, symName: _ggml_cpu_has_fp16_va, symObjAddr: 0x23428, symBinAddr: 0xD9054, symSize: 0x8 }
  - { offset: 0x2A06D7, size: 0x8, addend: 0x0, symName: _ggml_cpu_has_wasm_simd, symObjAddr: 0x23430, symBinAddr: 0xD905C, symSize: 0x8 }
  - { offset: 0x2A06F2, size: 0x8, addend: 0x0, symName: _ggml_cpu_has_llamafile, symObjAddr: 0x23438, symBinAddr: 0xD9064, symSize: 0x8 }
  - { offset: 0x2A070D, size: 0x8, addend: 0x0, symName: _ggml_cpu_has_sse3, symObjAddr: 0x23440, symBinAddr: 0xD906C, symSize: 0x8 }
  - { offset: 0x2A0728, size: 0x8, addend: 0x0, symName: _ggml_cpu_has_ssse3, symObjAddr: 0x23448, symBinAddr: 0xD9074, symSize: 0x8 }
  - { offset: 0x2A0743, size: 0x8, addend: 0x0, symName: _ggml_cpu_has_vsx, symObjAddr: 0x23450, symBinAddr: 0xD907C, symSize: 0x8 }
  - { offset: 0x2A075E, size: 0x8, addend: 0x0, symName: _ggml_cpu_has_vxe, symObjAddr: 0x23458, symBinAddr: 0xD9084, symSize: 0x8 }
  - { offset: 0x2A0779, size: 0x8, addend: 0x0, symName: _ggml_cpu_has_neon, symObjAddr: 0x23460, symBinAddr: 0xD908C, symSize: 0xC }
  - { offset: 0x2A0794, size: 0x8, addend: 0x0, symName: _ggml_cpu_has_dotprod, symObjAddr: 0x2346C, symBinAddr: 0xD9098, symSize: 0x8 }
  - { offset: 0x2A07AF, size: 0x8, addend: 0x0, symName: _ggml_cpu_has_sve, symObjAddr: 0x23474, symBinAddr: 0xD90A0, symSize: 0x8 }
  - { offset: 0x2A07CA, size: 0x8, addend: 0x0, symName: _ggml_cpu_has_matmul_int8, symObjAddr: 0x2347C, symBinAddr: 0xD90A8, symSize: 0x8 }
  - { offset: 0x2A07E5, size: 0x8, addend: 0x0, symName: _ggml_cpu_get_sve_cnt, symObjAddr: 0x23484, symBinAddr: 0xD90B0, symSize: 0x8 }
  - { offset: 0x2A0800, size: 0x8, addend: 0x0, symName: _ggml_cpu_has_sme, symObjAddr: 0x2348C, symBinAddr: 0xD90B8, symSize: 0x8 }
  - { offset: 0x2A081B, size: 0x8, addend: 0x0, symName: _ggml_vec_dot_f32, symObjAddr: 0x23494, symBinAddr: 0xD90C0, symSize: 0x150 }
  - { offset: 0x2A091D, size: 0x8, addend: 0x0, symName: _ggml_vec_dot_f16, symObjAddr: 0x235E4, symBinAddr: 0xD9210, symSize: 0x1FC }
  - { offset: 0x2A0A49, size: 0x8, addend: 0x0, symName: _ggml_vec_dot_bf16, symObjAddr: 0x237E0, symBinAddr: 0xD940C, symSize: 0x100 }
  - { offset: 0x2A0C28, size: 0x8, addend: 0x0, symName: _ggml_graph_compute_secondary_thread, symObjAddr: 0x238E0, symBinAddr: 0xD950C, symSize: 0x284 }
  - { offset: 0x2A28AF, size: 0x8, addend: 0x0, symName: __Z39ggml_backend_cpu_get_extra_buffers_typev, symObjAddr: 0x0, symBinAddr: 0xDF7E4, symSize: 0x94 }
  - { offset: 0x2A28BD, size: 0x8, addend: 0x0, symName: __Z39ggml_backend_cpu_get_extra_buffers_typev, symObjAddr: 0x0, symBinAddr: 0xDF7E4, symSize: 0x94 }
  - { offset: 0x2A28DD, size: 0x8, addend: 0x0, symName: __MergedGlobals.48, symObjAddr: 0x49BB0, symBinAddr: 0x1D06D0, symSize: 0x0 }
  - { offset: 0x2A8E26, size: 0x8, addend: 0x0, symName: _ggml_backend_cpu_reg, symObjAddr: 0x4E4, symBinAddr: 0xDFCC8, symSize: 0x1C }
  - { offset: 0x2A8E47, size: 0x8, addend: 0x0, symName: __MergedGlobals, symObjAddr: 0x3968, symBinAddr: 0x12C8F0, symSize: 0x0 }
  - { offset: 0x2A8E6D, size: 0x8, addend: 0x0, symName: __ZL18ggml_backend_cpu_i, symObjAddr: 0x3608, symBinAddr: 0x1267F0, symSize: 0x0 }
  - { offset: 0x2A8E80, size: 0x8, addend: 0x0, symName: __ZL31ggml_backend_cpu_reg_get_deviceP16ggml_backend_regm, symObjAddr: 0x690, symBinAddr: 0xDFE74, symSize: 0x148 }
  - { offset: 0x2A8EAC, size: 0x8, addend: 0x0, symName: __MergedGlobals.48, symObjAddr: 0x49BB0, symBinAddr: 0x1D06D0, symSize: 0x0 }
  - { offset: 0x2A8EC5, size: 0x8, addend: 0x0, symName: __MergedGlobals.48, symObjAddr: 0x49BB0, symBinAddr: 0x1D06D0, symSize: 0x0 }
  - { offset: 0x2A9038, size: 0x8, addend: 0x0, symName: __ZL25ggml_backend_cpu_device_i, symObjAddr: 0x3670, symBinAddr: 0x126858, symSize: 0x0 }
  - { offset: 0x2A904B, size: 0x8, addend: 0x0, symName: __ZL29ggml_backend_cpu_get_featuresP16ggml_backend_reg, symObjAddr: 0x12A0, symBinAddr: 0xE09E8, symSize: 0x94 }
  - { offset: 0x2A9077, size: 0x8, addend: 0x0, symName: __MergedGlobals.48, symObjAddr: 0x49BB0, symBinAddr: 0x1D06D0, symSize: 0x0 }
  - { offset: 0x2A9289, size: 0x8, addend: 0x0, symName: '__ZZL29ggml_backend_cpu_get_featuresP16ggml_backend_regENK3$_0clEv', symObjAddr: 0x1334, symBinAddr: 0xE0A7C, symSize: 0x1ED8 }
  - { offset: 0x2A92B2, size: 0x8, addend: 0x0, symName: __MergedGlobals.48, symObjAddr: 0x49BB0, symBinAddr: 0x1D06D0, symSize: 0x0 }
  - { offset: 0x2B1032, size: 0x8, addend: 0x0, symName: '__ZZ39ggml_backend_cpu_get_extra_buffers_typevENK3$_0clEv', symObjAddr: 0x94, symBinAddr: 0xDF878, symSize: 0x364 }
  - { offset: 0x2B1D8A, size: 0x8, addend: 0x0, symName: __ZNKSt3__16vectorIP24ggml_backend_buffer_typeNS_9allocatorIS2_EEE20__throw_length_errorB8ne180100Ev, symObjAddr: 0x954, symBinAddr: 0xE0138, symSize: 0x14 }
  - { offset: 0x2B1DBF, size: 0x8, addend: 0x0, symName: __ZNSt3__16vectorIP24ggml_backend_buffer_typeNS_9allocatorIS2_EEED1B8ne180100Ev, symObjAddr: 0x3F8, symBinAddr: 0xDFBDC, symSize: 0x30 }
  - { offset: 0x2B1F21, size: 0x8, addend: 0x0, symName: _ggml_backend_cpu_init, symObjAddr: 0x428, symBinAddr: 0xDFC0C, symSize: 0xBC }
  - { offset: 0x2B1FAF, size: 0x8, addend: 0x0, symName: _ggml_backend_is_cpu, symObjAddr: 0x500, symBinAddr: 0xDFCE4, symSize: 0x18 }
  - { offset: 0x2B200D, size: 0x8, addend: 0x0, symName: _ggml_backend_cpu_set_n_threads, symObjAddr: 0x518, symBinAddr: 0xDFCFC, symSize: 0x6C }
  - { offset: 0x2B2085, size: 0x8, addend: 0x0, symName: _ggml_backend_cpu_set_threadpool, symObjAddr: 0x584, symBinAddr: 0xDFD68, symSize: 0x80 }
  - { offset: 0x2B20B3, size: 0x8, addend: 0x0, symName: _ggml_backend_cpu_set_threadpool, symObjAddr: 0x584, symBinAddr: 0xDFD68, symSize: 0x80 }
  - { offset: 0x2B2139, size: 0x8, addend: 0x0, symName: _ggml_backend_cpu_set_abort_callback, symObjAddr: 0x604, symBinAddr: 0xDFDE8, symSize: 0x78 }
  - { offset: 0x2B215A, size: 0x8, addend: 0x0, symName: _ggml_backend_cpu_set_abort_callback, symObjAddr: 0x604, symBinAddr: 0xDFDE8, symSize: 0x78 }
  - { offset: 0x2B21E2, size: 0x8, addend: 0x0, symName: __ZL29ggml_backend_cpu_reg_get_nameP16ggml_backend_reg, symObjAddr: 0x67C, symBinAddr: 0xDFE60, symSize: 0xC }
  - { offset: 0x2B21F6, size: 0x8, addend: 0x0, symName: __ZL29ggml_backend_cpu_reg_get_nameP16ggml_backend_reg, symObjAddr: 0x67C, symBinAddr: 0xDFE60, symSize: 0xC }
  - { offset: 0x2B2222, size: 0x8, addend: 0x0, symName: __ZL37ggml_backend_cpu_reg_get_device_countP16ggml_backend_reg, symObjAddr: 0x688, symBinAddr: 0xDFE6C, symSize: 0x8 }
  - { offset: 0x2B224E, size: 0x8, addend: 0x0, symName: __ZN31ggml_backend_cpu_device_contextC1Ev, symObjAddr: 0xB90, symBinAddr: 0xE02D8, symSize: 0xB4 }
  - { offset: 0x2B2662, size: 0x8, addend: 0x0, symName: __ZL33ggml_backend_cpu_get_proc_addressP16ggml_backend_regPKc, symObjAddr: 0x7D8, symBinAddr: 0xDFFBC, symSize: 0x17C }
  - { offset: 0x2B27E1, size: 0x8, addend: 0x0, symName: __ZL25ggml_backend_cpu_get_nameP12ggml_backend, symObjAddr: 0xA04, symBinAddr: 0xE014C, symSize: 0xC }
  - { offset: 0x2B280B, size: 0x8, addend: 0x0, symName: __ZL21ggml_backend_cpu_freeP12ggml_backend, symObjAddr: 0xA10, symBinAddr: 0xE0158, symSize: 0x38 }
  - { offset: 0x2B2846, size: 0x8, addend: 0x0, symName: __ZL34ggml_backend_cpu_graph_plan_createP12ggml_backendPK11ggml_cgraph, symObjAddr: 0xA48, symBinAddr: 0xE0190, symSize: 0x90 }
  - { offset: 0x2B28DE, size: 0x8, addend: 0x0, symName: __ZL32ggml_backend_cpu_graph_plan_freeP12ggml_backendPv, symObjAddr: 0xAD8, symBinAddr: 0xE0220, symSize: 0x2C }
  - { offset: 0x2B2924, size: 0x8, addend: 0x0, symName: __ZL35ggml_backend_cpu_graph_plan_computeP12ggml_backendPv, symObjAddr: 0xB04, symBinAddr: 0xE024C, symSize: 0x8 }
  - { offset: 0x2B299E, size: 0x8, addend: 0x0, symName: __ZL30ggml_backend_cpu_graph_computeP12ggml_backendP11ggml_cgraph, symObjAddr: 0xB0C, symBinAddr: 0xE0254, symSize: 0x84 }
  - { offset: 0x2B2D18, size: 0x8, addend: 0x0, symName: __ZN31ggml_backend_cpu_device_contextD1Ev, symObjAddr: 0xC44, symBinAddr: 0xE038C, symSize: 0x40 }
  - { offset: 0x2B2E80, size: 0x8, addend: 0x0, symName: __ZL32ggml_backend_cpu_device_get_nameP19ggml_backend_device, symObjAddr: 0xC84, symBinAddr: 0xE03CC, symSize: 0xC }
  - { offset: 0x2B2F04, size: 0x8, addend: 0x0, symName: __ZL39ggml_backend_cpu_device_get_descriptionP19ggml_backend_device, symObjAddr: 0xC90, symBinAddr: 0xE03D8, symSize: 0x18 }
  - { offset: 0x2B2FB6, size: 0x8, addend: 0x0, symName: __ZL34ggml_backend_cpu_device_get_memoryP19ggml_backend_devicePmS1_, symObjAddr: 0xCA8, symBinAddr: 0xE03F0, symSize: 0xC }
  - { offset: 0x2B2FE1, size: 0x8, addend: 0x0, symName: __ZL32ggml_backend_cpu_device_get_typeP19ggml_backend_device, symObjAddr: 0xCB4, symBinAddr: 0xE03FC, symSize: 0x8 }
  - { offset: 0x2B306C, size: 0x8, addend: 0x0, symName: __ZL33ggml_backend_cpu_device_get_propsP19ggml_backend_deviceP22ggml_backend_dev_props, symObjAddr: 0xCBC, symBinAddr: 0xE0404, symSize: 0x4C }
  - { offset: 0x2B319B, size: 0x8, addend: 0x0, symName: __ZL36ggml_backend_cpu_device_init_backendP19ggml_backend_devicePKc, symObjAddr: 0xD08, symBinAddr: 0xE0450, symSize: 0xBC }
  - { offset: 0x2B3232, size: 0x8, addend: 0x0, symName: __ZL39ggml_backend_cpu_device_get_buffer_typeP19ggml_backend_device, symObjAddr: 0xDC4, symBinAddr: 0xE050C, symSize: 0x4 }
  - { offset: 0x2B3261, size: 0x8, addend: 0x0, symName: __ZL39ggml_backend_cpu_device_get_buffer_typeP19ggml_backend_device, symObjAddr: 0xDC4, symBinAddr: 0xE050C, symSize: 0x4 }
  - { offset: 0x2B3279, size: 0x8, addend: 0x0, symName: __ZL44ggml_backend_cpu_device_buffer_from_host_ptrP19ggml_backend_devicePvmm, symObjAddr: 0xDC8, symBinAddr: 0xE0510, symSize: 0xC }
  - { offset: 0x2B334F, size: 0x8, addend: 0x0, symName: __ZL35ggml_backend_cpu_device_supports_opP19ggml_backend_devicePK11ggml_tensor, symObjAddr: 0xDD4, symBinAddr: 0xE051C, symSize: 0x358 }
  - { offset: 0x2B360F, size: 0x8, addend: 0x0, symName: __ZL37ggml_backend_cpu_device_supports_buftP19ggml_backend_deviceP24ggml_backend_buffer_type, symObjAddr: 0x112C, symBinAddr: 0xE0874, symSize: 0xE0 }
  - { offset: 0x2B370B, size: 0x8, addend: 0x0, symName: __ZL46ggml_backend_cpu_device_get_extra_buffers_typeP19ggml_backend_device, symObjAddr: 0x120C, symBinAddr: 0xE0954, symSize: 0x94 }
  - { offset: 0x2B3D6E, size: 0x8, addend: 0x0, symName: __ZNKSt3__16vectorI20ggml_backend_featureNS_9allocatorIS1_EEE20__throw_length_errorB8ne180100Ev, symObjAddr: 0x323C, symBinAddr: 0xE2984, symSize: 0x14 }
  - { offset: 0x2B3DA3, size: 0x8, addend: 0x0, symName: __ZNSt3__16vectorI20ggml_backend_featureNS_9allocatorIS1_EEED1B8ne180100Ev, symObjAddr: 0x320C, symBinAddr: 0xE2954, symSize: 0x30 }
  - { offset: 0x2B5DD7, size: 0x8, addend: 0x0, symName: _ggml_backend_metal_buffer_type, symObjAddr: 0x0, symBinAddr: 0xE2998, symSize: 0xC }
  - { offset: 0x2B5DE5, size: 0x8, addend: 0x0, symName: _ggml_backend_metal_buffer_type, symObjAddr: 0x0, symBinAddr: 0xE2998, symSize: 0xC }
  - { offset: 0x2B5E0D, size: 0x8, addend: 0x0, symName: _ggml_backend_metal_buffer_type.ggml_backend_buffer_type_metal, symObjAddr: 0x122E0, symBinAddr: 0x12C930, symSize: 0x0 }
  - { offset: 0x2B6D13, size: 0x8, addend: 0x0, symName: __MergedGlobals, symObjAddr: 0x4D028, symBinAddr: 0x1D07E0, symSize: 0x0 }
  - { offset: 0x2B6D29, size: 0x8, addend: 0x0, symName: __MergedGlobals, symObjAddr: 0x4D028, symBinAddr: 0x1D07E0, symSize: 0x0 }
  - { offset: 0x2B6D41, size: 0x8, addend: 0x0, symName: __MergedGlobals, symObjAddr: 0x4D028, symBinAddr: 0x1D07E0, symSize: 0x0 }
  - { offset: 0x2B6E30, size: 0x8, addend: 0x0, symName: _ggml_backend_metal_buffer_i, symObjAddr: 0x16DC0, symBinAddr: 0x1268D0, symSize: 0x0 }
  - { offset: 0x2B6E47, size: 0x8, addend: 0x0, symName: _ggml_backend_metal_i, symObjAddr: 0x16E08, symBinAddr: 0x126918, symSize: 0x0 }
  - { offset: 0x2B6E5E, size: 0x8, addend: 0x0, symName: _ggml_backend_metal_reg_i, symObjAddr: 0x16E70, symBinAddr: 0x126980, symSize: 0x0 }
  - { offset: 0x2B6E75, size: 0x8, addend: 0x0, symName: _g_ggml_backend_metal_features, symObjAddr: 0x12370, symBinAddr: 0x12C9C0, symSize: 0x0 }
  - { offset: 0x2B6EBE, size: 0x8, addend: 0x0, symName: _ggml_backend_metal_device_i, symObjAddr: 0x16E90, symBinAddr: 0x1269A0, symSize: 0x0 }
  - { offset: 0x2B73D0, size: 0x8, addend: 0x0, symName: _ggml_backend_metal_buffer_type_get_name, symObjAddr: 0xC, symBinAddr: 0xE29A4, symSize: 0xC }
  - { offset: 0x2B744B, size: 0x8, addend: 0x0, symName: _ggml_backend_metal_buffer_type_alloc_buffer, symObjAddr: 0x18, symBinAddr: 0xE29B0, symSize: 0x1D8 }
  - { offset: 0x2B764E, size: 0x8, addend: 0x0, symName: _ggml_backend_metal_device_acq, symObjAddr: 0x628, symBinAddr: 0xE2FC0, symSize: 0xD8 }
  - { offset: 0x2B76CA, size: 0x8, addend: 0x0, symName: _ggml_backend_metal_buffer_rset_init, symObjAddr: 0x700, symBinAddr: 0xE3098, symSize: 0x144 }
  - { offset: 0x2B77A7, size: 0x8, addend: 0x0, symName: _ggml_backend_metal_buffer_type_get_alignment, symObjAddr: 0x1F0, symBinAddr: 0xE2B88, symSize: 0x8 }
  - { offset: 0x2B77D0, size: 0x8, addend: 0x0, symName: _ggml_backend_metal_buffer_type_get_max_size, symObjAddr: 0x1F8, symBinAddr: 0xE2B90, symSize: 0x6C }
  - { offset: 0x2B7846, size: 0x8, addend: 0x0, symName: _ggml_backend_metal_buffer_type_is_host, symObjAddr: 0x264, symBinAddr: 0xE2BFC, symSize: 0x8 }
  - { offset: 0x2B7894, size: 0x8, addend: 0x0, symName: _ggml_backend_metal_buffer_from_ptr, symObjAddr: 0x26C, symBinAddr: 0xE2C04, symSize: 0x3BC }
  - { offset: 0x2B7BC5, size: 0x8, addend: 0x0, symName: _ggml_backend_metal_init, symObjAddr: 0x844, symBinAddr: 0xE31DC, symSize: 0x1FC }
  - { offset: 0x2B7CFA, size: 0x8, addend: 0x0, symName: _ggml_backend_metal_reg, symObjAddr: 0xA40, symBinAddr: 0xE33D8, symSize: 0xBC }
  - { offset: 0x2B7D27, size: 0x8, addend: 0x0, symName: _ggml_metal_init, symObjAddr: 0xAFC, symBinAddr: 0xE3494, symSize: 0x9AAC }
  - { offset: 0x2BEA25, size: 0x8, addend: 0x0, symName: _ggml_backend_metal_reg, symObjAddr: 0xA40, symBinAddr: 0xE33D8, symSize: 0xBC }
  - { offset: 0x2BEA53, size: 0x8, addend: 0x0, symName: _ggml_backend_is_metal, symObjAddr: 0xA5A8, symBinAddr: 0xECF40, symSize: 0x18 }
  - { offset: 0x2BEA80, size: 0x8, addend: 0x0, symName: _ggml_backend_metal_set_abort_callback, symObjAddr: 0xA5C0, symBinAddr: 0xECF58, symSize: 0x7C }
  - { offset: 0x2BEB0E, size: 0x8, addend: 0x0, symName: _ggml_backend_metal_supports_family, symObjAddr: 0xA63C, symBinAddr: 0xECFD4, symSize: 0x78 }
  - { offset: 0x2BEB22, size: 0x8, addend: 0x0, symName: _ggml_backend_metal_supports_family, symObjAddr: 0xA63C, symBinAddr: 0xECFD4, symSize: 0x78 }
  - { offset: 0x2BEBA3, size: 0x8, addend: 0x0, symName: _ggml_backend_metal_capture_next_compute, symObjAddr: 0xA6B4, symBinAddr: 0xED04C, symSize: 0x6C }
  - { offset: 0x2BEBB7, size: 0x8, addend: 0x0, symName: _ggml_backend_metal_capture_next_compute, symObjAddr: 0xA6B4, symBinAddr: 0xED04C, symSize: 0x6C }
  - { offset: 0x2BEC23, size: 0x8, addend: 0x0, symName: _ggml_backend_metal_buffer_from_ptr_type_get_name, symObjAddr: 0xA720, symBinAddr: 0xED0B8, symSize: 0xC }
  - { offset: 0x2BEC37, size: 0x8, addend: 0x0, symName: _ggml_backend_metal_buffer_from_ptr_type_get_name, symObjAddr: 0xA720, symBinAddr: 0xED0B8, symSize: 0xC }
  - { offset: 0x2BEC78, size: 0x8, addend: 0x0, symName: _ggml_backend_metal_buffer_free_buffer, symObjAddr: 0xA72C, symBinAddr: 0xED0C4, symSize: 0xC8 }
  - { offset: 0x2BED2C, size: 0x8, addend: 0x0, symName: _ggml_backend_metal_buffer_get_base, symObjAddr: 0xA7F4, symBinAddr: 0xED18C, symSize: 0xC }
  - { offset: 0x2BED6A, size: 0x8, addend: 0x0, symName: _ggml_backend_metal_buffer_memset_tensor, symObjAddr: 0xA800, symBinAddr: 0xED198, symSize: 0x14 }
  - { offset: 0x2BEDD1, size: 0x8, addend: 0x0, symName: _ggml_backend_metal_buffer_set_tensor, symObjAddr: 0xA814, symBinAddr: 0xED1AC, symSize: 0x14 }
  - { offset: 0x2BEE38, size: 0x8, addend: 0x0, symName: _ggml_backend_metal_buffer_get_tensor, symObjAddr: 0xA828, symBinAddr: 0xED1C0, symSize: 0x14 }
  - { offset: 0x2BEE9F, size: 0x8, addend: 0x0, symName: _ggml_backend_metal_buffer_cpy_tensor, symObjAddr: 0xA83C, symBinAddr: 0xED1D4, symSize: 0x5C }
  - { offset: 0x2BEF35, size: 0x8, addend: 0x0, symName: _ggml_backend_metal_buffer_clear, symObjAddr: 0xA898, symBinAddr: 0xED230, symSize: 0xC }
  - { offset: 0x2BEF7E, size: 0x8, addend: 0x0, symName: _ggml_backend_metal_name, symObjAddr: 0xA8A4, symBinAddr: 0xED23C, symSize: 0xC }
  - { offset: 0x2BEFCF, size: 0x8, addend: 0x0, symName: _ggml_backend_metal_free, symObjAddr: 0xA8B0, symBinAddr: 0xED248, symSize: 0xAC }
  - { offset: 0x2BF6A1, size: 0x8, addend: 0x0, symName: _ggml_backend_metal_graph_compute, symObjAddr: 0xA95C, symBinAddr: 0xED2F4, symSize: 0x360 }
  - { offset: 0x2BF879, size: 0x8, addend: 0x0, symName: ___ggml_backend_metal_set_n_cb_block_invoke, symObjAddr: 0xACBC, symBinAddr: 0xED654, symSize: 0x168 }
  - { offset: 0x2BFA28, size: 0x8, addend: 0x0, symName: _ggml_metal_encode_node, symObjAddr: 0xAE24, symBinAddr: 0xED7BC, symSize: 0x6474 }
  - { offset: 0x2C46D7, size: 0x8, addend: 0x0, symName: _ggml_metal_supports_op, symObjAddr: 0x11298, symBinAddr: 0xF3C30, symSize: 0x260 }
  - { offset: 0x2C47EC, size: 0x8, addend: 0x0, symName: _ggml_metal_supports_op, symObjAddr: 0x11298, symBinAddr: 0xF3C30, symSize: 0x260 }
  - { offset: 0x2C4934, size: 0x8, addend: 0x0, symName: _ggml_metal_get_buffer, symObjAddr: 0x114F8, symBinAddr: 0xF3E90, symSize: 0xBC }
  - { offset: 0x2C4A79, size: 0x8, addend: 0x0, symName: _ggml_backend_metal_reg_get_name, symObjAddr: 0x115B4, symBinAddr: 0xF3F4C, symSize: 0xC }
  - { offset: 0x2C4AA2, size: 0x8, addend: 0x0, symName: _ggml_backend_metal_reg_device_count, symObjAddr: 0x115C0, symBinAddr: 0xF3F58, symSize: 0x8 }
  - { offset: 0x2C4ACB, size: 0x8, addend: 0x0, symName: _ggml_backend_metal_reg_device_get, symObjAddr: 0x115C8, symBinAddr: 0xF3F60, symSize: 0x40 }
  - { offset: 0x2C4B08, size: 0x8, addend: 0x0, symName: _ggml_backend_metal_get_proc_address, symObjAddr: 0x11608, symBinAddr: 0xF3FA0, symSize: 0x30 }
  - { offset: 0x2C4B1C, size: 0x8, addend: 0x0, symName: _ggml_backend_metal_get_proc_address, symObjAddr: 0x11608, symBinAddr: 0xF3FA0, symSize: 0x30 }
  - { offset: 0x2C4B86, size: 0x8, addend: 0x0, symName: _ggml_backend_metal_get_features, symObjAddr: 0x11638, symBinAddr: 0xF3FD0, symSize: 0xC }
  - { offset: 0x2C4BAF, size: 0x8, addend: 0x0, symName: _ggml_backend_metal_device_get_name, symObjAddr: 0x11644, symBinAddr: 0xF3FDC, symSize: 0xC }
  - { offset: 0x2C4BD8, size: 0x8, addend: 0x0, symName: _ggml_backend_metal_device_get_description, symObjAddr: 0x11650, symBinAddr: 0xF3FE8, symSize: 0x58 }
  - { offset: 0x2C4C30, size: 0x8, addend: 0x0, symName: _ggml_backend_metal_device_get_memory, symObjAddr: 0x116A8, symBinAddr: 0xF4040, symSize: 0x90 }
  - { offset: 0x2C4CAD, size: 0x8, addend: 0x0, symName: _ggml_backend_metal_device_get_type, symObjAddr: 0x11738, symBinAddr: 0xF40D0, symSize: 0x8 }
  - { offset: 0x2C4D4E, size: 0x8, addend: 0x0, symName: _ggml_backend_metal_device_get_props, symObjAddr: 0x11740, symBinAddr: 0xF40D8, symSize: 0xDC }
  - { offset: 0x2C4E5D, size: 0x8, addend: 0x0, symName: _ggml_backend_metal_device_init, symObjAddr: 0x1181C, symBinAddr: 0xF41B4, symSize: 0x150 }
  - { offset: 0x2C4F7D, size: 0x8, addend: 0x0, symName: _ggml_backend_metal_device_get_buffer_type, symObjAddr: 0x1196C, symBinAddr: 0xF4304, symSize: 0xC }
  - { offset: 0x2C4F91, size: 0x8, addend: 0x0, symName: _ggml_backend_metal_device_get_buffer_type, symObjAddr: 0x1196C, symBinAddr: 0xF4304, symSize: 0xC }
  - { offset: 0x2C4FBA, size: 0x8, addend: 0x0, symName: _ggml_backend_metal_device_buffer_from_ptr, symObjAddr: 0x11978, symBinAddr: 0xF4310, symSize: 0x3BC }
  - { offset: 0x2C5292, size: 0x8, addend: 0x0, symName: _ggml_backend_metal_device_supports_op, symObjAddr: 0x11D34, symBinAddr: 0xF46CC, symSize: 0x8 }
  - { offset: 0x2C52F6, size: 0x8, addend: 0x0, symName: _ggml_backend_metal_device_supports_buft, symObjAddr: 0x11D3C, symBinAddr: 0xF46D4, symSize: 0x24 }
  - { offset: 0x2C532E, size: 0x8, addend: 0x0, symName: _ggml_backend_metal_device_offload_op, symObjAddr: 0x11D60, symBinAddr: 0xF46F8, symSize: 0x8 }
  - { offset: 0x2C6E94, size: 0x8, addend: 0x0, symName: _ggml_backend_blas_reg, symObjAddr: 0xB0, symBinAddr: 0xF47B0, symSize: 0xC }
  - { offset: 0x2C6EBC, size: 0x8, addend: 0x0, symName: __MergedGlobals, symObjAddr: 0x1B50, symBinAddr: 0x12C9F0, symSize: 0x0 }
  - { offset: 0x2C6F32, size: 0x8, addend: 0x0, symName: __ZL14blas_backend_i, symObjAddr: 0x1818, symBinAddr: 0x126A38, symSize: 0x0 }
  - { offset: 0x2C6F40, size: 0x8, addend: 0x0, symName: __ZL32ggml_backend_blas_reg_get_deviceP16ggml_backend_regm, symObjAddr: 0x154, symBinAddr: 0xF4854, symSize: 0xDC }
  - { offset: 0x2C6F6C, size: 0x8, addend: 0x0, symName: __MergedGlobals.46, symObjAddr: 0x39F30, symBinAddr: 0x1D0930, symSize: 0x0 }
  - { offset: 0x2C6FBE, size: 0x8, addend: 0x0, symName: __ZL26ggml_backend_blas_device_i, symObjAddr: 0x18C8, symBinAddr: 0x126AE8, symSize: 0x0 }
  - { offset: 0x2CA9F1, size: 0x8, addend: 0x0, symName: '__ZNSt3__114__thread_proxyB8ne180100INS_5tupleIJNS_10unique_ptrINS_15__thread_structENS_14default_deleteIS3_EEEEMNS_19__async_assoc_stateIvNS_12__async_funcIZL25ggml_backend_blas_mul_matP25ggml_backend_blas_contextP11ggml_tensorE3$_0JEEEEEFvvEPSF_EEEEEPvSK_', symObjAddr: 0x12DC, symBinAddr: 0xF5930, symSize: 0x8C }
  - { offset: 0x2CC1DF, size: 0x8, addend: 0x0, symName: _ggml_backend_blas_init, symObjAddr: 0x0, symBinAddr: 0xF4700, symSize: 0xB0 }
  - { offset: 0x2CC271, size: 0x8, addend: 0x0, symName: _ggml_backend_is_blas, symObjAddr: 0xBC, symBinAddr: 0xF47BC, symSize: 0x18 }
  - { offset: 0x2CC2D1, size: 0x8, addend: 0x0, symName: _ggml_backend_blas_set_n_threads, symObjAddr: 0xD4, symBinAddr: 0xF47D4, symSize: 0x6C }
  - { offset: 0x2CC34E, size: 0x8, addend: 0x0, symName: __ZL30ggml_backend_blas_reg_get_nameP16ggml_backend_reg, symObjAddr: 0x140, symBinAddr: 0xF4840, symSize: 0xC }
  - { offset: 0x2CC37C, size: 0x8, addend: 0x0, symName: __ZL30ggml_backend_blas_reg_get_nameP16ggml_backend_reg, symObjAddr: 0x140, symBinAddr: 0xF4840, symSize: 0xC }
  - { offset: 0x2CC3A8, size: 0x8, addend: 0x0, symName: __ZL38ggml_backend_blas_reg_get_device_countP16ggml_backend_reg, symObjAddr: 0x14C, symBinAddr: 0xF484C, symSize: 0x8 }
  - { offset: 0x2CC3D4, size: 0x8, addend: 0x0, symName: __ZL34ggml_backend_blas_get_proc_addressP16ggml_backend_regPKc, symObjAddr: 0x230, symBinAddr: 0xF4930, symSize: 0x30 }
  - { offset: 0x2CC43F, size: 0x8, addend: 0x0, symName: __ZL26ggml_backend_blas_get_nameP12ggml_backend, symObjAddr: 0x270, symBinAddr: 0xF4960, symSize: 0xC }
  - { offset: 0x2CC686, size: 0x8, addend: 0x0, symName: __ZL22ggml_backend_blas_freeP12ggml_backend, symObjAddr: 0x27C, symBinAddr: 0xF496C, symSize: 0x94 }
  - { offset: 0x2CDC87, size: 0x8, addend: 0x0, symName: __ZL31ggml_backend_blas_graph_computeP12ggml_backendP11ggml_cgraph, symObjAddr: 0x310, symBinAddr: 0xF4A00, symSize: 0xDA0 }
  - { offset: 0x2CF3C5, size: 0x8, addend: 0x0, symName: __ZNKSt3__16vectorINS_6futureIvEENS_9allocatorIS2_EEE20__throw_length_errorB8ne180100Ev, symObjAddr: 0x10B0, symBinAddr: 0xF57A0, symSize: 0x14 }
  - { offset: 0x2CF4AC, size: 0x8, addend: 0x0, symName: '__ZNSt3__119__async_assoc_stateIvNS_12__async_funcIZL25ggml_backend_blas_mul_matP25ggml_backend_blas_contextP11ggml_tensorE3$_0JEEEED1Ev', symObjAddr: 0x1160, symBinAddr: 0xF57B4, symSize: 0x4C }
  - { offset: 0x2CF52E, size: 0x8, addend: 0x0, symName: '__ZNSt3__119__async_assoc_stateIvNS_12__async_funcIZL25ggml_backend_blas_mul_matP25ggml_backend_blas_contextP11ggml_tensorE3$_0JEEEED0Ev', symObjAddr: 0x11AC, symBinAddr: 0xF5800, symSize: 0x50 }
  - { offset: 0x2CF5B9, size: 0x8, addend: 0x0, symName: '__ZNSt3__119__async_assoc_stateIvNS_12__async_funcIZL25ggml_backend_blas_mul_matP25ggml_backend_blas_contextP11ggml_tensorE3$_0JEEEE16__on_zero_sharedEv', symObjAddr: 0x11FC, symBinAddr: 0xF5850, symSize: 0x28 }
  - { offset: 0x2CF651, size: 0x8, addend: 0x0, symName: '__ZNSt3__119__async_assoc_stateIvNS_12__async_funcIZL25ggml_backend_blas_mul_matP25ggml_backend_blas_contextP11ggml_tensorE3$_0JEEEE9__executeEv', symObjAddr: 0x1224, symBinAddr: 0xF5878, symSize: 0xB8 }
  - { offset: 0x2CF8D6, size: 0x8, addend: 0x0, symName: '__ZNSt3__110unique_ptrINS_5tupleIJNS0_INS_15__thread_structENS_14default_deleteIS2_EEEEMNS_19__async_assoc_stateIvNS_12__async_funcIZL25ggml_backend_blas_mul_matP25ggml_backend_blas_contextP11ggml_tensorE3$_0JEEEEEFvvEPSE_EEENS3_ISI_EEED1B8ne180100Ev', symObjAddr: 0x1368, symBinAddr: 0xF59BC, symSize: 0x48 }
  - { offset: 0x2CFA92, size: 0x8, addend: 0x0, symName: __ZL33ggml_backend_blas_device_get_nameP19ggml_backend_device, symObjAddr: 0x13B0, symBinAddr: 0xF5A04, symSize: 0xC }
  - { offset: 0x2CFABE, size: 0x8, addend: 0x0, symName: __ZL40ggml_backend_blas_device_get_descriptionP19ggml_backend_device, symObjAddr: 0x13BC, symBinAddr: 0xF5A10, symSize: 0xC }
  - { offset: 0x2CFAEA, size: 0x8, addend: 0x0, symName: __ZL35ggml_backend_blas_device_get_memoryP19ggml_backend_devicePmS1_, symObjAddr: 0x13C8, symBinAddr: 0xF5A1C, symSize: 0xC }
  - { offset: 0x2CFB15, size: 0x8, addend: 0x0, symName: __ZL33ggml_backend_blas_device_get_typeP19ggml_backend_device, symObjAddr: 0x13D4, symBinAddr: 0xF5A28, symSize: 0x8 }
  - { offset: 0x2CFB74, size: 0x8, addend: 0x0, symName: __ZL34ggml_backend_blas_device_get_propsP19ggml_backend_deviceP22ggml_backend_dev_props, symObjAddr: 0x13DC, symBinAddr: 0xF5A30, symSize: 0x2C }
  - { offset: 0x2CFBFF, size: 0x8, addend: 0x0, symName: __ZL37ggml_backend_blas_device_init_backendP19ggml_backend_devicePKc, symObjAddr: 0x1408, symBinAddr: 0xF5A5C, symSize: 0xB0 }
  - { offset: 0x2CFCA2, size: 0x8, addend: 0x0, symName: __ZL40ggml_backend_blas_device_get_buffer_typeP19ggml_backend_device, symObjAddr: 0x14B8, symBinAddr: 0xF5B0C, symSize: 0x4 }
  - { offset: 0x2CFCD1, size: 0x8, addend: 0x0, symName: __ZL40ggml_backend_blas_device_get_buffer_typeP19ggml_backend_device, symObjAddr: 0x14B8, symBinAddr: 0xF5B0C, symSize: 0x4 }
  - { offset: 0x2CFCE9, size: 0x8, addend: 0x0, symName: __ZL45ggml_backend_blas_device_buffer_from_host_ptrP19ggml_backend_devicePvmm, symObjAddr: 0x14BC, symBinAddr: 0xF5B10, symSize: 0xC }
  - { offset: 0x2CFD7A, size: 0x8, addend: 0x0, symName: __ZL36ggml_backend_blas_device_supports_opP19ggml_backend_devicePK11ggml_tensor, symObjAddr: 0x14C8, symBinAddr: 0xF5B1C, symSize: 0x148 }
  - { offset: 0x2CFF18, size: 0x8, addend: 0x0, symName: __ZL38ggml_backend_blas_device_supports_buftP19ggml_backend_deviceP24ggml_backend_buffer_type, symObjAddr: 0x1610, symBinAddr: 0xF5C64, symSize: 0x8 }
  - { offset: 0x2D1E4C, size: 0x8, addend: 0x0, symName: '-[whisper_encoder_implInput initWithLogmel_data:]', symObjAddr: 0x0, symBinAddr: 0xF5C6C, symSize: 0x70 }
  - { offset: 0x2D1E5A, size: 0x8, addend: 0x0, symName: '+[whisper_encoder_impl URLOfModelInThisBundle]', symObjAddr: 0x258, symBinAddr: 0xF5EC4, symSize: 0xC4 }
  - { offset: 0x2D26A1, size: 0x8, addend: 0x0, symName: '-[whisper_encoder_implInput initWithLogmel_data:]', symObjAddr: 0x0, symBinAddr: 0xF5C6C, symSize: 0x70 }
  - { offset: 0x2D26E8, size: 0x8, addend: 0x0, symName: '-[whisper_encoder_implInput featureNames]', symObjAddr: 0x70, symBinAddr: 0xF5CDC, symSize: 0x14 }
  - { offset: 0x2D271B, size: 0x8, addend: 0x0, symName: '-[whisper_encoder_implInput featureValueForName:]', symObjAddr: 0x84, symBinAddr: 0xF5CF0, symSize: 0x88 }
  - { offset: 0x2D2762, size: 0x8, addend: 0x0, symName: '-[whisper_encoder_implInput logmel_data]', symObjAddr: 0x10C, symBinAddr: 0xF5D78, symSize: 0x8 }
  - { offset: 0x2D2799, size: 0x8, addend: 0x0, symName: '-[whisper_encoder_implInput setLogmel_data:]', symObjAddr: 0x114, symBinAddr: 0xF5D80, symSize: 0xC }
  - { offset: 0x2D27DA, size: 0x8, addend: 0x0, symName: '-[whisper_encoder_implInput .cxx_destruct]', symObjAddr: 0x120, symBinAddr: 0xF5D8C, symSize: 0xC }
  - { offset: 0x2D280D, size: 0x8, addend: 0x0, symName: '-[whisper_encoder_implOutput initWithOutput:]', symObjAddr: 0x12C, symBinAddr: 0xF5D98, symSize: 0x70 }
  - { offset: 0x2D2854, size: 0x8, addend: 0x0, symName: '-[whisper_encoder_implOutput featureNames]', symObjAddr: 0x19C, symBinAddr: 0xF5E08, symSize: 0x14 }
  - { offset: 0x2D2887, size: 0x8, addend: 0x0, symName: '-[whisper_encoder_implOutput featureValueForName:]', symObjAddr: 0x1B0, symBinAddr: 0xF5E1C, symSize: 0x88 }
  - { offset: 0x2D28CE, size: 0x8, addend: 0x0, symName: '-[whisper_encoder_implOutput output]', symObjAddr: 0x238, symBinAddr: 0xF5EA4, symSize: 0x8 }
  - { offset: 0x2D2905, size: 0x8, addend: 0x0, symName: '-[whisper_encoder_implOutput setOutput:]', symObjAddr: 0x240, symBinAddr: 0xF5EAC, symSize: 0xC }
  - { offset: 0x2D2946, size: 0x8, addend: 0x0, symName: '-[whisper_encoder_implOutput .cxx_destruct]', symObjAddr: 0x24C, symBinAddr: 0xF5EB8, symSize: 0xC }
  - { offset: 0x2D29B1, size: 0x8, addend: 0x0, symName: '+[whisper_encoder_impl URLOfModelInThisBundle].cold.1', symObjAddr: 0xA34, symBinAddr: 0xF75A0, symSize: 0x44 }
  - { offset: 0x2D2A07, size: 0x8, addend: 0x0, symName: '-[whisper_encoder_impl initWithMLModel:]', symObjAddr: 0x31C, symBinAddr: 0xF5F88, symSize: 0x8C }
  - { offset: 0x2D2A4E, size: 0x8, addend: 0x0, symName: '-[whisper_encoder_impl init]', symObjAddr: 0x3A8, symBinAddr: 0xF6014, symSize: 0x48 }
  - { offset: 0x2D2A85, size: 0x8, addend: 0x0, symName: '-[whisper_encoder_impl initWithConfiguration:error:]', symObjAddr: 0x3F0, symBinAddr: 0xF605C, symSize: 0x68 }
  - { offset: 0x2D2ADC, size: 0x8, addend: 0x0, symName: '-[whisper_encoder_impl initWithContentsOfURL:error:]', symObjAddr: 0x458, symBinAddr: 0xF60C4, symSize: 0x68 }
  - { offset: 0x2D2B43, size: 0x8, addend: 0x0, symName: '-[whisper_encoder_impl initWithContentsOfURL:configuration:error:]', symObjAddr: 0x4C0, symBinAddr: 0xF612C, symSize: 0x68 }
  - { offset: 0x2D2BBA, size: 0x8, addend: 0x0, symName: '+[whisper_encoder_impl loadWithConfiguration:completionHandler:]', symObjAddr: 0x528, symBinAddr: 0xF6194, symSize: 0x70 }
  - { offset: 0x2D2C0D, size: 0x8, addend: 0x0, symName: '+[whisper_encoder_impl loadContentsOfURL:configuration:completionHandler:]', symObjAddr: 0x598, symBinAddr: 0xF6204, symSize: 0x94 }
  - { offset: 0x2D2C6C, size: 0x8, addend: 0x0, symName: '___74+[whisper_encoder_impl loadContentsOfURL:configuration:completionHandler:]_block_invoke', symObjAddr: 0x62C, symBinAddr: 0xF6298, symSize: 0x90 }
  - { offset: 0x2D2D1A, size: 0x8, addend: 0x0, symName: ___copy_helper_block_e8_32b, symObjAddr: 0x6BC, symBinAddr: 0xF6328, symSize: 0x10 }
  - { offset: 0x2D2D43, size: 0x8, addend: 0x0, symName: ___destroy_helper_block_e8_32s, symObjAddr: 0x6CC, symBinAddr: 0xF6338, symSize: 0x8 }
  - { offset: 0x2D2D62, size: 0x8, addend: 0x0, symName: '-[whisper_encoder_impl predictionFromFeatures:error:]', symObjAddr: 0x6D4, symBinAddr: 0xF6340, symSize: 0x6C }
  - { offset: 0x2D2DB9, size: 0x8, addend: 0x0, symName: '-[whisper_encoder_impl predictionFromFeatures:options:error:]', symObjAddr: 0x740, symBinAddr: 0xF63AC, symSize: 0xE4 }
  - { offset: 0x2D2E30, size: 0x8, addend: 0x0, symName: '-[whisper_encoder_impl predictionFromLogmel_data:error:]', symObjAddr: 0x824, symBinAddr: 0xF6490, symSize: 0x70 }
  - { offset: 0x2D2E97, size: 0x8, addend: 0x0, symName: '-[whisper_encoder_impl predictionsFromInputs:options:error:]', symObjAddr: 0x894, symBinAddr: 0xF6500, symSize: 0x18C }
  - { offset: 0x2D2F7C, size: 0x8, addend: 0x0, symName: '-[whisper_encoder_impl model]', symObjAddr: 0xA20, symBinAddr: 0xF668C, symSize: 0x8 }
  - { offset: 0x2D2FB3, size: 0x8, addend: 0x0, symName: '-[whisper_encoder_impl .cxx_destruct]', symObjAddr: 0xA28, symBinAddr: 0xF6694, symSize: 0xC }
  - { offset: 0x2D341F, size: 0x8, addend: 0x0, symName: _whisper_coreml_init, symObjAddr: 0x0, symBinAddr: 0xF66A0, symSize: 0x12C }
  - { offset: 0x2D34F2, size: 0x8, addend: 0x0, symName: _whisper_coreml_init, symObjAddr: 0x0, symBinAddr: 0xF66A0, symSize: 0x12C }
  - { offset: 0x2D356D, size: 0x8, addend: 0x0, symName: _whisper_coreml_free, symObjAddr: 0x12C, symBinAddr: 0xF67CC, symSize: 0x28 }
  - { offset: 0x2D35B0, size: 0x8, addend: 0x0, symName: _whisper_coreml_encode, symObjAddr: 0x154, symBinAddr: 0xF67F4, symSize: 0x274 }
...
